
34b1c7a2-45f7-11e9-b210-d663bd873d93.elf：     文件格式 elf32-littlearm
34b1c7a2-45f7-11e9-b210-d663bd873d93.elf
体系结构：arm， 标志 0x00000150：
HAS_SYMS, DYNAMIC, D_PAGED
起始地址 0x00000020

程序头：
0x70000001 off    0x00022040 vaddr 0x00012040 paddr 0x00012040 align 2**2
         filesz 0x00000a90 memsz 0x00000a90 flags r--
    LOAD off    0x00010000 vaddr 0x00000000 paddr 0x00000000 align 2**16
         filesz 0x0000f8f2 memsz 0x0000f8f2 flags r-x
    LOAD off    0x0001f8f8 vaddr 0x0000f8f8 paddr 0x0000f8f8 align 2**16
         filesz 0x0000352c memsz 0x0000352c flags r--
    LOAD off    0x00023000 vaddr 0x00013000 paddr 0x00013000 align 2**16
         filesz 0x0000009c memsz 0x00042c30 flags rw-
 DYNAMIC off    0x00022c10 vaddr 0x00012c10 paddr 0x00012c10 align 2**2
         filesz 0x00000080 memsz 0x00000080 flags rw-

动态节：
  HASH                 0x00012de0
  STRTAB               0x00012d50
  SYMTAB               0x00012c90
  STRSZ                0x0000008e
  SYMENT               0x00000010
  DEBUG                0x00000000
  REL                  0x00012b00
  RELSZ                0x00000110
  RELENT               0x00000008
  FLAGS_1              0x08000000
  RELCOUNT             0x00000019
私有标志 = 5000400： [Version5 EABI] [hard-float ABI]

节：
Idx Name          Size      VMA       LMA       File off  Algn
  0 .ta_head      00000020  00000000  00000000  00010000  2**3
                  CONTENTS, ALLOC, LOAD, DATA
  1 .text         0000f8d2  00000020  00000020  00010020  2**3
                  CONTENTS, ALLOC, LOAD, READONLY, CODE
  2 .rodata       000018ec  0000f8f8  0000f8f8  0001f8f8  2**3
                  CONTENTS, ALLOC, LOAD, READONLY, DATA
  3 .ARM.extab    00000e44  000111e4  000111e4  000211e4  2**2
                  CONTENTS, ALLOC, LOAD, READONLY, DATA
  4 .ARM.extab.text.__aeabi_ldivmod 0000000c  00012028  00012028  00022028  2**2
                  CONTENTS, ALLOC, LOAD, READONLY, DATA
  5 .ARM.extab.text.__aeabi_uldivmod 0000000c  00012034  00012034  00022034  2**2
                  CONTENTS, ALLOC, LOAD, READONLY, DATA
  6 .ARM.exidx    00000a90  00012040  00012040  00022040  2**2
                  CONTENTS, ALLOC, LOAD, READONLY, DATA
  7 .got          00000030  00012ad0  00012ad0  00022ad0  2**2
                  CONTENTS, ALLOC, LOAD, DATA
  8 .dynsym       000000c0  00012c90  00012c90  00022c90  2**2
                  CONTENTS, ALLOC, LOAD, READONLY, DATA
  9 .rel.got      00000048  00012bc8  00012bc8  00022bc8  2**2
                  CONTENTS, ALLOC, LOAD, READONLY, DATA
 10 .dynamic      00000080  00012c10  00012c10  00022c10  2**2
                  CONTENTS, ALLOC, LOAD, DATA
 11 .dynstr       0000008e  00012d50  00012d50  00022d50  2**0
                  CONTENTS, ALLOC, LOAD, READONLY, DATA
 12 .hash         00000044  00012de0  00012de0  00022de0  2**2
                  CONTENTS, ALLOC, LOAD, READONLY, DATA
 13 .data         0000009c  00013000  00013000  00023000  2**2
                  CONTENTS, ALLOC, LOAD, DATA
 14 .bss          00042b94  0001309c  0001309c  0002309c  2**2
                  ALLOC
 15 .debug_info   0000cb5a  00000000  00000000  0002309c  2**0
                  CONTENTS, READONLY, DEBUGGING
 16 .debug_abbrev 00003762  00000000  00000000  0002fbf6  2**0
                  CONTENTS, READONLY, DEBUGGING
 17 .debug_aranges 00000608  00000000  00000000  00033358  2**3
                  CONTENTS, READONLY, DEBUGGING
 18 .debug_macro  00005d1a  00000000  00000000  00033960  2**0
                  CONTENTS, READONLY, DEBUGGING
 19 .debug_line   000078a8  00000000  00000000  0003967a  2**0
                  CONTENTS, READONLY, DEBUGGING
 20 .debug_str    000114ee  00000000  00000000  00040f22  2**0
                  CONTENTS, READONLY, DEBUGGING
 21 .comment      0000002d  00000000  00000000  00052410  2**0
                  CONTENTS, READONLY
 22 .ARM.attributes 00000038  00000000  00000000  0005243d  2**0
                  CONTENTS, READONLY
 23 .debug_frame  00003684  00000000  00000000  00052478  2**2
                  CONTENTS, READONLY, DEBUGGING
 24 .rel.dyn      000000c8  00012b00  00012b00  00022b00  2**2
                  CONTENTS, ALLOC, LOAD, READONLY, DATA
 25 .debug_ranges 00000038  00000000  00000000  00055b00  2**3
                  CONTENTS, READONLY, DEBUGGING
SYMBOL TABLE:
00000000 l    d  .ta_head	00000000 .ta_head
00000020 l    d  .text	00000000 .text
0000f8f8 l    d  .rodata	00000000 .rodata
000111e4 l    d  .ARM.extab	00000000 .ARM.extab
00012028 l    d  .ARM.extab.text.__aeabi_ldivmod	00000000 .ARM.extab.text.__aeabi_ldivmod
00012034 l    d  .ARM.extab.text.__aeabi_uldivmod	00000000 .ARM.extab.text.__aeabi_uldivmod
00012040 l    d  .ARM.exidx	00000000 .ARM.exidx
00012ad0 l    d  .got	00000000 .got
00012bc8 l    d  .rel.got	00000000 .rel.got
00012c10 l    d  .dynamic	00000000 .dynamic
00012c90 l    d  .dynsym	00000000 .dynsym
00012d50 l    d  .dynstr	00000000 .dynstr
00012de0 l    d  .hash	00000000 .hash
00013000 l    d  .data	00000000 .data
0001309c l    d  .bss	00000000 .bss
00000000 l    d  .debug_info	00000000 .debug_info
00000000 l    d  .debug_abbrev	00000000 .debug_abbrev
00000000 l    d  .debug_aranges	00000000 .debug_aranges
00000000 l    d  .debug_macro	00000000 .debug_macro
00000000 l    d  .debug_line	00000000 .debug_line
00000000 l    d  .debug_str	00000000 .debug_str
00000000 l    d  .comment	00000000 .comment
00000000 l    d  .ARM.attributes	00000000 .ARM.attributes
00000000 l    d  .debug_frame	00000000 .debug_frame
00012b00 l    d  .rel.dyn	00000000 .rel.dyn
00000000 l    d  .debug_ranges	00000000 .debug_ranges
00000000 l    df *ABS*	00000000 user_ta_header.c
0000fb80 l     O .rodata	00000001 __compound_literal.0
0000fb81 l     O .rodata	00000001 __compound_literal.1
0000fb82 l     O .rodata	00000001 __compound_literal.2
0000fb84 l     O .rodata	00000004 __compound_literal.3
0000fb88 l     O .rodata	00000004 __compound_literal.4
0000fb8c l     O .rodata	00000004 __compound_literal.5
00000000 l    df *ABS*	00000000 my_test_handle.c
0000faf0 l     O .rodata	0000000c __func__.6148
000000d4 l     F .text	000001bc l_CryptoTaHash_sha
0000fafc l     O .rodata	00000013 __func__.6163
00000290 l     F .text	00000040 l_CryptoTaOther_Random
0000fb10 l     O .rodata	00000017 __func__.6174
0000fb28 l     O .rodata	00000015 __func__.6185
0000fb40 l     O .rodata	00000018 __func__.6193
0000fb58 l     O .rodata	0000001a __func__.6249
00000000 l    df *ABS*	00000000 normrnd.c
0001309c l     O .bss	00000004 next
00000000 l    df *ABS*	00000000 tee_math.c
00000000 l    df *ABS*	00000000 my_test.c
0000f960 l     O .rodata	00000014 __func__.6160
0000f974 l     O .rodata	00000015 __func__.6164
0000f98c l     O .rodata	00000019 __func__.6171
0000f9a8 l     O .rodata	0000001a __func__.6175
0000119c l     F .text	000000b0 inc_value
0000f9c4 l     O .rodata	0000000a __func__.6181
00000000 l    df *ABS*	00000000 tee_api_operations.c
000023a4 l     F .text	00000048 init_hash_operation
000025a0 l     F .text	00000310 tee_buffer_update
00000000 l    df *ABS*	00000000 user_ta_entry.c
00003e24 l     F .text	00000010 __utee_gprof_init
00003e34 l     F .text	00000010 __utee_gprof_fini
00013074 l     O .data	00000008 ta_sessions
000530c4 l     O .bss	00000004 ta_ref_count
000530c8 l     O .bss	00000001 context_init
00003e44 l     F .text	00000058 ta_header_save_params
00003e9c l     F .text	00000044 ta_header_get_session
00003ee0 l     F .text	00000128 ta_header_add_session
00004008 l     F .text	0000009c ta_header_remove_session
000040a4 l     F .text	0000008e entry_open_session
00004132 l     F .text	00000040 entry_close_session
00004172 l     F .text	00000070 entry_invoke_command
00000000 l    df *ABS*	00000000 utee_syscalls_a32.o
00000000 l    df *ABS*	00000000 gprof_a32.o
00000000 l    df *ABS*	00000000 tee_api_arith.c
000530cc l     O .bss	00001b00 mempool_u32
0001307c l     O .data	00000004 mempool
00004838 l     F .text	00000028 TEE_BigInt_Panic
00000000 l    df *ABS*	00000000 tee_api.c
0000fce0 l     O .rodata	00000004 DEFAULT_TEE_MALLOC_HINT
00054bcc l     O .bss	00000004 tee_api_instance_data
00000000 l    df *ABS*	00000000 tee_user_mem.c
0000fce4 l     O .rodata	00000004 DEFAULT_TEE_MALLOC_HINT
00013080 l     O .data	00000004 ARTIST
0000fce8 l     O .rodata	00000004 CANARY_LINE_SIZE
00005954 l     F .text	0000001e buf_addr
00005972 l     F .text	00000028 buf_size
0000599a l     F .text	0000001e elem_addr
000059b8 l     F .text	00000048 is_buffer_valid
00005a00 l     F .text	00000068 print_buf
00054bd0 l     O .bss	00000004 heap_level
00054bd4 l     O .bss	00000008 global_stats
00005a68 l     F .text	00000060 heap_inc
00005ac8 l     F .text	00000064 heap_dec
00005b2c l     F .text	00000064 check_elem_end
0000fde8 l     O .rodata	0000000f __func__.6246
00005b90 l     F .text	000000dc check_elem
0000fdf8 l     O .rodata	0000000b __func__.6251
00005c6c l     F .text	00000060 is_mem_coherent
0000fe04 l     O .rodata	00000010 __func__.6256
0000fe14 l     O .rodata	00000013 __func__.6271
0000fe28 l     O .rodata	00000012 __func__.6288
0000fe3c l     O .rodata	00000018 __func__.6296
00006064 l     F .text	00000068 tee_user_mem_status
0000fe54 l     O .rodata	00000014 __func__.6301
00000000 l    df *ABS*	00000000 trace_ext.c
00000000 l    df *ABS*	00000000 assert.c
00000000 l    df *ABS*	00000000 bget_malloc.c
00006274 l     F .text	00000014 malloc_lock
00006288 l     F .text	00000018 malloc_unlock
000062a0 l     F .text	0000001a tag_asan_free
000062ba l     F .text	0000001a tag_asan_alloced
000062d4 l     F .text	00000024 memset_unchecked
0001308c l     O .data	00000010 freelist
00054bdc l     O .bss	00000004 totalloc
00054be0 l     O .bss	00000004 numget
00054be4 l     O .bss	00000004 numrel
00010298 l     O .rodata	00000005 __func__.5667
000102a0 l     O .rodata	00000006 __func__.5681
000102a8 l     O .rodata	00000006 __func__.5689
000102b0 l     O .rodata	00000005 __func__.5696
000102b8 l     O .rodata	00000006 __func__.5704
000102c0 l     O .rodata	00000007 __func__.5713
00054be8 l     O .bss	00000004 malloc_pool
00054bec l     O .bss	00000004 malloc_pool_len
00054bf0 l     O .bss	00000038 mstats
00006bd0 l     F .text	0000009c raw_malloc_return_hook
00006d10 l     F .text	00000010 raw_malloc_validate_pools
00006d20 l     F .text	00000030 bpool_foreach_iterator_init
00006d50 l     F .text	000000d8 bpool_foreach_pool
000102c8 l     O .rodata	00000013 __func__.5752
00006e28 l     F .text	00000080 bpool_foreach
00006ea8 l     F .text	0000005e raw_malloc
00006f06 l     F .text	00000024 raw_free
00006f2a l     F .text	00000070 raw_calloc
00006f9a l     F .text	00000060 raw_realloc
00006ffa l     F .text	0000015e create_free_block
000102dc l     O .rodata	00000012 __func__.5799
00007158 l     F .text	0000015c brel_before
000102f0 l     O .rodata	0000000c __func__.5808
000072b4 l     F .text	00000220 brel_after
000102fc l     O .rodata	0000000b __func__.5818
000074d4 l     F .text	00000148 raw_memalign
00010308 l     O .rodata	0000000d __func__.5832
0000761c l     F .text	0000005c bget_buf_size
00010318 l     O .rodata	0000000e __func__.5838
00007706 l     F .text	00000028 realloc_unlocked
00007792 l     F .text	00000026 get_payload_start_size
00010328 l     O .rodata	00000010 __func__.5884
00000000 l    df *ABS*	00000000 snprintk.c
00010338 l     O .rodata	00000011 hexdigits
0001034c l     O .rodata	00000011 HEXDIGITS
00007c14 l     F .text	00000df4 kprintf
00007b76 l     F .text	0000009e uuid2str
00000000 l    df *ABS*	00000000 trace.c
00008a74 l     F .text	0000005c trace_level_to_string
000103e0 l     O .rodata	0000002d lvl_strs.5538
00000000 l    df *ABS*	00000000 arm32_aeabi_ldivmod_a32.o
00000000 l    df *ABS*	00000000 mpa_misc.c
00000000 l    df *ABS*	00000000 mpa_montgomery.c
00000000 l    df *ABS*	00000000 mpa_primetest.c
00011078 l     O .rodata	000000b8 const_small_prime_factors
00011130 l     O .rodata	00000010 const_miller_rabin_proof_limit
00011140 l     O .rodata	0000000c const_two
000095dc l     F .text	0000009a is_small_prime
00009676 l     F .text	00000062 has_small_factors
000096d8 l     F .text	000002c4 primality_test_miller_rabin
000095a2 l     F .text	0000003a check_table
0001114c l     O .rodata	0000001c proof_a.5919
00000000 l    df *ABS*	00000000 mpa_random.c
00054c28 l     O .bss	00000004 get_rng_array
000099c4 l     F .text	00000034 get_random_byte
00000000 l    df *ABS*	00000000 mpa_expmod.c
00000000 l    df *ABS*	00000000 mpa_io.c
00009d30 l     F .text	00000042 __mpa_isspace
00009d72 l     F .text	00000084 __mpa_is_char_in_base
00009df6 l     F .text	00000058 __mpa_digit_value
00009e4e l     F .text	00000022 __mpa_digitstr_to_binary_wsize_base_16
00009e70 l     F .text	00000050 __mpa_nibble_to_char
00009ec0 l     F .text	00000066 __mpa_word_to_hexstr
00009f26 l     F .text	00000128 __mpa_mpanum_to_hexstr
0000a04e l     F .text	00000050 __mpa_count_leading_zero_bits
0000a09e l     F .text	00000064 __mpa_size_in_base_255
000111cc l     O .rodata	0000000c __func__.5993
00054c2c l     O .bss	00001002 buf.5979
000111d8 l     O .rodata	0000000c __func__.6007
0000a4d8 l     F .text	00000064 set_word
0000a628 l     F .text	00000044 get_word
00000000 l    df *ABS*	00000000 GS.c
00000000 l    df *ABS*	00000000 tee_api_panic.c
00000000 l    df *ABS*	00000000 tee_api_objects.c
00000000 l    df *ABS*	00000000 utee_misc.c
00000000 l    df *ABS*	00000000 snprintf.c
00000000 l    df *ABS*	00000000 memcmp.c
00000000 l    df *ABS*	00000000 memcpy.c
00000000 l    df *ABS*	00000000 memmove.c
00000000 l    df *ABS*	00000000 memset.c
00000000 l    df *ABS*	00000000 strlen.c
00000000 l    df *ABS*	00000000 buf_compare_ct.c
00000000 l    df *ABS*	00000000 aeabi_unwind.c
00000000 l    df *ABS*	00000000 memchr.c
00000000 l    df *ABS*	00000000 arm32_aeabi_ldivmod.c
0000c66a l     F .text	000000ee division_lqr
0000c758 l     F .text	0000006a ul_div_qr
00000000 l    df *ABS*	00000000 mpa_conv.c
00000000 l    df *ABS*	00000000 mpa_div.c
0000ca60 l     F .text	000000d8 __mpa_soft_div
0000cb90 l     F .text	0000061a __mpa_div_q_r_internal
00000000 l    df *ABS*	00000000 mpa_gcd.c
0000d4fc l     F .text	000000f4 __mpa_divby2
0000d5f0 l     F .text	000002c8 __mpa_egcd
0000d8b8 l     F .text	0000015a __mpa_gcd
00000000 l    df *ABS*	00000000 mpa_mem_static.c
00000000 l    df *ABS*	00000000 mpa_mul.c
00000000 l    df *ABS*	00000000 mpa_shift.c
00000000 l    df *ABS*	00000000 mpa_addsub.c
00000000 l    df *ABS*	00000000 mpa_cmp.c
00000000 l    df *ABS*	00000000 mpa_init.c
00000000 l    df *ABS*	00000000 mpa_modulus.c
00000000 l    df *ABS*	00000000 
00012c10 l     O *ABS*	00000000 _DYNAMIC
00012ad0 l     O *ABS*	00000000 _GLOBAL_OFFSET_TABLE_
000047ec g     F .text	00000018 utee_se_channel_transmit
000061e0 g     F .text	00000038 putchar
0000f900 g     O .rodata	00000004 RAND_MAX
0000f606 g     F .text	0000004c mpa_init_static
0000b432 g     F .text	0000012e TEE_PopulateTransientObject
00008e88 g     F .text	00000048 mpa_copy
000050f4 g     F .text	0000004c TEE_BigIntConvertToFMM
00004f54 g     F .text	00000024 TEE_BigIntSquareMod
00004b34 g     F .text	0000002a TEE_BigIntShiftRight
0000c966 g     F .text	00000096 mpa_get_S32
00008f02 g     F .text	00000080 mpa_highest_bit_index
000045dc g     F .text	00000018 utee_storage_obj_create
0000c834 g     F .text	000000e6 __l_divmod
000047b0 g     F .text	00000014 utee_se_session_close
0000425c g     F .text	00000014 utee_return
000023ec g     F .text	0000005c TEE_DigestUpdate
0000470c g     F .text	00000014 utee_se_service_get_readers
000058ac g     F .text	00000020 TEE_Realloc
0000d1aa g     F .text	00000132 __mpa_div_q_r_internal_word
00005e14 g     F .text	000000ac tee_user_mem_realloc
0000204c g     F .text	00000230 TEE_SetOperationKey2
00000eac g     F .text	00000094 tee_sqrt
0000eec2 g     F .text	00000202 mpa_sub
00006140 g     F .text	00000068 printf
00005ec0 g     F .text	00000110 tee_user_mem_free
00004270 g     F .text	00000014 utee_log
0001043c g     O .rodata	00000004 NR_STORED_PRIMES
0000b560 g     F .text	0000004c TEE_InitRefAttribute
00005512 g     F .text	00000090 TEE_InvokeTACommand
00008fec g     F .text	00000032 mpa_can_hold
0000e03e g     F .text	000000ae __mpa_abs_mul_word
00003264 g     F .text	000001fc TEE_AEEncryptFinal
00009500 g     F .text	0000004c mpa_montgomery_mul
00007ad6 g     F .text	0000002e vsnprintk
0000901e g     F .text	0000002a mpa_parity
0000c1ae g     F .text	0000013e memmove
0000e99e g     F .text	00000064 __mpa_full_adder_ackum
0000bf9a g     F .text	0000003c snprintf
00004b10 g     F .text	00000024 TEE_BigIntCmpS32
0000b5ac g     F .text	0000004c TEE_InitValueAttribute
0000c526 g     F .text	00000010 __aeabi_unwind_cpp_pr0
00004bb0 g     F .text	00000038 TEE_BigIntAdd
000042b0 g     F .text	00000014 utee_get_property_name_to_index
0000fb7c g     O .rodata	00000004 ta_heap_size
00010438 g     O .rodata	00000004 MAX_TABULATED_PRIME
0000b3d2 g     F .text	00000060 TEE_ResetTransientObject
0000bf04 g     F .text	0000001c utee_malloc
00004394 g     F .text	00000018 utee_cryp_state_alloc
00004564 g     F .text	00000018 utee_authenc_enc_final
0000dfb6 g     F .text	00000088 __mpa_mul_add_word_cum
0000a784 g     F .text	000006e6 GS
00002508 g     F .text	00000098 TEE_CipherInit
00004c20 g     F .text	00000026 TEE_BigIntNeg
0000d426 g     F .text	000000d6 mpa_div
00000020 g       .text	00000000 __text_start
00000d2c g     F .text	0000008a MatrixCopy
0000bb7e g     F .text	0000005a TEE_StartPersistentObjectEnumerator
0001042c g     O .rodata	0000000c const_one
000079de g     F .text	000000c2 malloc_buffer_overlaps_heap
0000f4ae g     F .text	00000026 __mpa_abs_less_than
00004e14 g     F .text	00000084 TEE_BigIntSubMod
00002f80 g     F .text	000000e6 TEE_AEInit
000099f8 g     F .text	0000013c mpa_get_random
0000bf7a g     F .text	00000020 get_rng_array
00008ad0 g     F .text	000002ec trace_printf
000046e4 g     F .text	00000014 utee_se_service_open
0000c0bc g     F .text	000000f2 memcpy
000043c0 g     F .text	00000014 utee_cryp_state_free
00008e54 g     F .text	00000034 mpa_wipe
00000b7c g     F .text	000001b0 normrnd
00005140 g     F .text	00000090 TEE_BigIntConvertFromFMM
0000ae7e g     F .text	0000001a TEE_Panic
000047d8 g     F .text	00000014 utee_se_channel_get_select_resp
00008df4 g     F .text	00000018 __aeabi_uldivmod
0000227c g     F .text	00000128 TEE_CopyOperation
000061a8 g     F .text	00000038 puts
000051d0 g     F .text	0000004c TEE_BigIntComputeFMM
0000c9fc g     F .text	00000032 mpa_set_word
00006ccc g     F .text	00000044 malloc_get_stats
0000e4cc g     F .text	00000228 mpa_shift_left
00004440 g     F .text	00000018 utee_cipher_final
0000e1f8 g     F .text	000000c4 mpa_mul
00005860 g     F .text	0000002c TEE_GetREETime
0000baba g     F .text	00000060 TEE_AllocatePersistentObjectEnumerator
00000f40 g     F .text	00000168 tee_exp
00013004 g     O .data	0000006c ta_props
00003644 g     F .text	00000196 TEE_AsymmetricEncrypt
00007678 g     F .text	00000032 malloc
000044a8 g     F .text	00000014 utee_cryp_obj_close
00004748 g     F .text	00000014 utee_se_reader_open_session
0000bfd6 g     F .text	0000002e vsnprintf
0000b6fc g     F .text	000000f0 TEE_GenerateKey
00013000 g     O .data	00000004 trace_level
0000bef0 g     F .text	00000014 utee_get_ta_exec_id
00004ae8 g     F .text	00000028 TEE_BigIntCmp
0000bf20 g     F .text	00000020 utee_realloc
0000fc7c g     O .rodata	00000004 ta_num_props
000065f4 g     F .text	00000094 bgetr
0000454c g     F .text	00000018 utee_authenc_update_payload
000028b0 g     F .text	000001bc TEE_CipherUpdate
00004a06 g     F .text	0000006a TEE_BigIntConvertToOctetString
00001ce8 g     F .text	000001a0 TEE_GetOperationInfoMultiple
00004818 g     F .text	00000014 utee_cache_operation
00004520 g     F .text	00000018 utee_authenc_init
00004b5e g     F .text	0000002e TEE_BigIntGetBit
0000fb74 g     O .rodata	00000008 trace_ext_prefix
0000ea02 g     F .text	00000114 __mpa_abs_add
00006560 g     F .text	00000094 bgetz
000056a8 g     F .text	0000001c TEE_GetInstanceData
0000575e g     F .text	00000038 TEE_Wait
00004694 g     F .text	00000014 utee_storage_obj_write
0000deac g     F .text	00000090 mpa_free_static_temp_var
0000954c g     F .text	00000056 mpa_is_prob_prime
0000c546 g     F .text	00000010 __aeabi_unwind_cpp_pr2
00004804 g     F .text	00000014 utee_se_channel_close
0000e2bc g     F .text	000000aa mpa_mul_word
0000590a g     F .text	00000024 TEE_CacheFlush
000010dc g     F .text	00000030 TA_DestroyEntryPoint
00006218 g     F .text	00000048 _assert_log
00004972 g     F .text	0000002e TEE_BigIntFMMContextSizeInU32
00002ea6 g     F .text	000000da TEE_MACCompareFinal
0000ba26 g     F .text	00000094 TEE_RenamePersistentObject
00002448 g     F .text	000000c0 TEE_DigestDoFinal
0000d2dc g     F .text	0000014a __mpa_div_q_r
00004860 g     F .text	00000044 _TEE_MathAPI_Init
0000466c g     F .text	00000014 utee_storage_next_enum
000130a0 g     O .bss	00040000 ta_heap
00004f78 g     F .text	00000068 TEE_BigIntInvMod
00001164 g     F .text	00000038 TA_CloseSessionEntryPoint
000037da g     F .text	00000196 TEE_AsymmetricDecrypt
0000b7ec g     F .text	000000c6 TEE_OpenPersistentObject
00004284 g     F .text	00000014 __utee_panic
000043ac g     F .text	00000014 utee_cryp_state_copy
0000124c g     F .text	000000bc TA_InvokeCommandEntryPoint
0000a53c g     F .text	000000ec mpa_set_oct_str
00004798 g     F .text	00000018 utee_se_session_open_channel
0000e366 g     F .text	000000b2 __mpa_shift_words_left
00004494 g     F .text	00000014 utee_cryp_obj_alloc
00004380 g     F .text	00000014 utee_set_ta_time
00004480 g     F .text	00000014 utee_cryp_obj_get_attr
0000b5f8 g     F .text	0000004c TEE_CopyObjectAttributes
00009194 g     F .text	0000011a __mpa_montgomery_sub_ack
000076d0 g     F .text	00000036 calloc
0000588c g     F .text	00000020 TEE_Malloc
00004344 g     F .text	00000014 utee_mask_cancellation
000044bc g     F .text	00000014 utee_cryp_obj_reset
0000563e g     F .text	00000042 TEE_CheckMemoryAccessRights
00055c30 g       .bss	00000000 __gprof_buf_end
0000c7c2 g     F .text	00000072 __ul_divmod
0000f0c4 g     F .text	0000002a mpa_neg
00010440 g     O .rodata	00000c38 PRIME_TABLE
0000bc92 g     F .text	00000088 TEE_ReadObjectData
0000b140 g     F .text	000000c2 TEE_GetObjectBufferAttribute
0000110c g     F .text	00000058 TA_OpenSessionEntryPoint
0000da12 g     F .text	000000ec mpa_gcd
00008ed0 g     F .text	00000032 mpa_abs
00004658 g     F .text	00000014 utee_storage_start_enum
00001c48 g     F .text	0000004a TEE_FreeOperation
0000a116 g     F .text	00000332 mpa_set_str
00004608 g     F .text	00000014 utee_storage_obj_rename
000530a0 g     O .bss	00000004 ta_param_types
0000ae98 g     F .text	00000156 __utee_from_attr
000050a8 g     F .text	0000004c TEE_BigIntIsProbablePrime
000003cc g     F .text	000000ec g_CryptoTaHandle_Rand
0000b9dc g     F .text	0000004a TEE_CloseAndDeletePersistentObject1
0000de86 g     F .text	00000026 mpa_alloc_static_temp_var
0000999c g     F .text	00000028 mpa_set_random_generator
00004298 g     F .text	00000018 utee_get_property
00003460 g     F .text	000001e4 TEE_AEDecryptFinal
000048a4 g     F .text	0000001e TEE_BigIntInit
000056c4 g     F .text	00000024 TEE_MemMove
000049a0 g     F .text	00000066 TEE_BigIntConvertFromOctetString
00013070 g     O .data	00000004 _ref__utee_mcount
00002cbc g     F .text	00000072 TEE_MACInit
00003970 g     F .text	00000180 TEE_AsymmetricSignDigest
0000c556 g     F .text	00000114 memchr
000055d6 g     F .text	00000034 TEE_UnmaskCancellation
0000afee g     F .text	0000006e TEE_GetObjectInfo
0000f7ba g     F .text	00000050 mpa_mul_mod
000045f4 g     F .text	00000014 utee_storage_obj_del
000030e0 g     F .text	00000184 TEE_AEUpdate
000046bc g     F .text	00000014 utee_storage_obj_seek
0000b372 g     F .text	00000060 TEE_FreeTransientObject
000093de g     F .text	00000122 mpa_compute_fmm_context
000043e8 g     F .text	00000014 utee_hash_update
0000dcd8 g     F .text	00000048 mpa_init_scratch_mem_sync
00000b30 g     F .text	0000004c rand
0000482c  w    F .text	0000000c __utee_mcount
00001c92 g     F .text	00000056 TEE_GetOperationInfo
00004d14 g     F .text	0000007c TEE_BigIntMod
000047c4 g     F .text	00000014 utee_se_channel_select_next
000042dc g     F .text	00000014 utee_close_ta_session
00004cb4 g     F .text	00000060 TEE_BigIntDiv
00006c6c g     F .text	00000060 malloc_reset_stats
00004428 g     F .text	00000018 utee_cipher_update
0000b0f4 g     F .text	0000004c TEE_RestrictObjectUsage1
00004784 g     F .text	00000014 utee_se_session_get_atr
0000772e g     F .text	0000002e realloc
0000eb16 g     F .text	000000e6 __mpa_abs_add_ackum
000045ac g     F .text	00000018 utee_asymm_verify
00004c46 g     F .text	0000003a TEE_BigIntMul
00001e88 g     F .text	00000080 TEE_ResetOperation
0000ca2e g     F .text	00000032 mpa_get_word
00000368 g     F .text	00000064 g_CryptoTaHandle_Random
0000570c g     F .text	00000026 TEE_MemFill
0000c004 g     F .text	000000b8 memcmp
000077b8 g     F .text	00000188 malloc_add_pool
00002d2e g     F .text	00000082 TEE_MACUpdate
00008a50 g     F .text	00000024 trace_get_level
0000450c g     F .text	00000014 utee_cryp_random_number_generate
0000b0a8 g     F .text	0000004c TEE_RestrictObjectUsage
0000494c g     F .text	00000026 TEE_BigIntFMMSizeInU32
000048c2 g     F .text	00000040 TEE_BigIntInitFMM
00004594 g     F .text	00000018 utee_asymm_operate
0000b2e0 g     F .text	00000032 TEE_CloseObject
000041e2 g     F .text	00000066 __utee_entry
000002d0 g     F .text	00000098 g_CryptoTaHandle_Sha
000004e0 g     F .text	00000624 g_CryptoTaHandle_GenModle
0000f8f2 g       .text	00000000 __text_end
00004fe0 g     F .text	0000007c TEE_BigIntRelativePrime
00009b34 g     F .text	0000006c mpa_get_random_digits
0000f8f8 g     O .rodata	00000008 PI
000069e8 g     F .text	00000124 bpool
0000c91a g     F .text	0000004c mpa_set_S32
0000f652 g     F .text	0000009c mpa_init_static_fmm_context
000055a2 g     F .text	00000034 TEE_GetCancellationFlag
000046f8 g     F .text	00000014 utee_se_service_close
00005ccc g     F .text	00000148 tee_user_mem_alloc
00013084 g     O .data	00000008 user_mem_head
0000581a g     F .text	00000046 TEE_SetTAPersistentTime
0000f0ee g     F .text	0000014a mpa_add_word
00004720 g     F .text	00000014 utee_se_reader_get_prop
0000c2ec g     F .text	0000011c memset
00005796 g     F .text	00000084 TEE_GetTAPersistentTime
00008dbc g     F .text	0000001e dhex_dump
00000b08 g     F .text	00000028 srand
0000b8b2 g     F .text	000000f8 TEE_CreatePersistentObject
0000560a g     F .text	00000034 TEE_MaskCancellation
0000e936 g     F .text	00000068 __mpa_full_sub
00004680 g     F .text	00000014 utee_storage_obj_read
00003066 g     F .text	0000007a TEE_AEUpdateAAD
0000bd98 g     F .text	0000006c TEE_TruncateObjectData
0000bf40 g     F .text	00000020 utee_calloc
000044d0 g     F .text	00000014 utee_cryp_obj_populate
0000f4d4 g     F .text	0000008a mpa_cmp
0000f80a g     F .text	000000e8 mpa_inv_mod
0000f238 g     F .text	0000014e mpa_sub_word
0000df3c g     F .text	0000007a __mpa_mul_add_word
0000ece8 g     F .text	000001da mpa_add
000004b8 g     F .text	00000028 g_CryptoTaHandle_GS
00009ba0 g     F .text	00000190 mpa_exp_mod
0000b05c g     F .text	0000004c TEE_GetObjectInfo1
0000e418 g     F .text	000000b4 __mpa_shift_words_right
00008a08 g     F .text	00000048 trace_set_level
00004770 g     F .text	00000014 utee_se_session_is_closed
00004458 g     F .text	00000014 utee_cryp_obj_get_info
0000b202 g     F .text	000000de TEE_GetObjectValueAttribute
00001f08 g     F .text	00000144 TEE_SetOperationKey
0000461c g     F .text	00000014 utee_storage_alloc_enum
00004644 g     F .text	00000014 utee_storage_reset_enum
000046a8 g     F .text	00000014 utee_storage_obj_trunc
0000f6ee g     F .text	0000002c mpa_mod
0000f484 g     F .text	0000002a __mpa_abs_greater_than
00004a92 g     F .text	00000056 TEE_BigIntConvertToS32
00004be8 g     F .text	00000038 TEE_BigIntSub
00004308 g     F .text	00000014 utee_get_cancellation_flag
000043d4 g     F .text	00000014 utee_hash_init
0000ae6a g     F .text	00000014 tahead_get_trace_level
0000521c g     F .text	00000166 __utee_from_param
0000be04 g     F .text	000000ec TEE_SeekObjectData
0001041c g     O .rodata	00000010 Const_1_LShift_Base
00005382 g     F .text	000000fa __utee_to_param
0000775c g     F .text	00000036 memalign
00002a6c g     F .text	00000250 TEE_CipherDoFinal
00004a70 g     F .text	00000022 TEE_BigIntConvertFromS32
0000f76a g     F .text	00000050 mpa_sub_mod
0000446c g     F .text	00000014 utee_cryp_obj_restrict_usage
00007940 g     F .text	0000009e malloc_buffer_is_within_alloced
000044e4 g     F .text	00000014 utee_cryp_obj_copy
0000e6f4 g     F .text	000001de mpa_shift_right
00004902 g     F .text	0000004a TEE_BigIntInitFMMContext
000044f8 g     F .text	00000014 utee_cryp_derive_key
000092ae g     F .text	00000130 __mpa_montgomery_mul
0000a66c g     F .text	00000116 mpa_get_oct_str
0000f55e g     F .text	000000a8 mpa_cmp_short
0000457c g     F .text	00000018 utee_authenc_dec_final
0000bd1a g     F .text	0000007e TEE_WriteObjectData
0000bb4c g     F .text	00000032 TEE_ResetPersistentObjectEnumerator
0000f386 g     F .text	000000fe __mpa_abs_cmp
00004c80 g     F .text	00000034 TEE_BigIntSquare
000010a8 g     F .text	00000034 TA_CreateEntryPoint
00007aa0 g     F .text	00000036 snprintk
00004b8c g     F .text	00000024 TEE_BigIntGetBitCount
00004e98 g     F .text	000000bc TEE_BigIntMulMod
00003c58 g     F .text	000001a0 TEE_DeriveKey
00000db6 g     F .text	000000ce transMatrix
000530a4 g     O .bss	00000020 ta_params
0000e0ec g     F .text	0000010c __mpa_abs_mul
000062f8 g     F .text	00000268 bget
0000b312 g     F .text	00000060 TEE_AllocateTransientObject
000058cc g     F .text	0000001a TEE_Free
00004734 g     F .text	00000014 utee_se_reader_get_name
0000592e g     F .text	00000024 TEE_CacheInvalidate
00004414 g     F .text	00000014 utee_cipher_init
00006260 g     F .text	00000014 _assert_break
00004d90 g     F .text	00000084 TEE_BigIntAddMod
00004630 g     F .text	00000014 utee_storage_free_enum
00004538 g     F .text	00000014 utee_authenc_update_aad
00008f82 g     F .text	0000006a mpa_get_bit
00001308 g     F .text	00000940 TEE_AllocateOperation
0000dd20 g     F .text	00000032 mpa_init_scratch_mem
00003df8 g     F .text	0000002c TEE_GenerateRandom
000056e8 g     F .text	00000024 TEE_MemCompare
00007b04 g     F .text	00000072 __vsnprintf
0000bb1a g     F .text	00000032 TEE_FreePersistentObjectEnumerator
0000547c g     F .text	00000066 TEE_OpenTASession
00004248 g     F .text	00000014 utee_panic
00000e88 g     F .text	00000024 tee_abs
00006108 g     F .text	00000024 trace_ext_puts
000060cc g     F .text	0000003c tee_user_mem_garbage
0000612c g     F .text	00000014 trace_ext_get_thread_id
0000b9aa g     F .text	00000032 TEE_CloseAndDeletePersistentObject
000058e6 g     F .text	00000024 TEE_CacheClean
000042c4 g     F .text	00000018 utee_open_ta_session
0000c492 g     F .text	00000094 buf_compare_ct
0000cb38 g     F .text	00000058 __mpa_div_dword
00008e0c g     F .text	00000048 __mpa_set_unused_digits_to_zero
00010410 g     O .rodata	0000000c const_largest_deci_base
0000a102 g     F .text	00000014 mpa_get_str_size
00005ff0 g     F .text	00000074 tee_user_mem_check_heap
0000b644 g     F .text	000000b8 TEE_CopyObjectAttributes1
000043fc g     F .text	00000018 utee_hash_final
0000c408 g     F .text	0000008a strlen
0000505c g     F .text	0000004c TEE_BigIntComputeExtendedGcd
0000c536 g     F .text	00000010 __aeabi_unwind_cpp_pr1
0000dafe g     F .text	000001da mpa_extended_gcd
0000f71a g     F .text	00000050 mpa_add_mod
000045c4 g     F .text	00000018 utee_storage_obj_open
000042f0 g     F .text	00000018 utee_invoke_ta_command
0000a448 g     F .text	00000090 mpa_get_str
00004358 g     F .text	00000014 utee_wait
0000bf60 g     F .text	0000001a utee_free
00005fd0 g     F .text	00000020 tee_user_mem_mark_heap
00005732 g     F .text	0000002c TEE_GetSystemTime
00000000 g     O .ta_head	00000020 ta_head
00006688 g     F .text	00000360 brel
0000dd52 g     F .text	00000134 mpa_alloc_static_temp_var_size
0000436c g     F .text	00000014 utee_get_time
00009060 g     F .text	00000134 __mpa_montgomery_mul_add
00000020 g     F .text	000000b4 g_TA_printf
00005680 g     F .text	00000028 TEE_SetInstanceData
00004330 g     F .text	00000014 utee_unmask_cancellation
00008ddc g     F .text	00000018 __aeabi_ldivmod
0000431c g     F .text	00000014 utee_check_access_rights
0000475c g     F .text	00000014 utee_se_reader_close_sessions
0000bbd8 g     F .text	000000ba TEE_GetNextPersistentObject
000046d0 g     F .text	00000014 utee_cryp_obj_generate_key
000054e2 g     F .text	00000030 TEE_CloseTASession
00009048 g     F .text	00000018 mpa_constant_one
00003af0 g     F .text	00000168 TEE_AsymmetricVerifyDigest
0000e8d2 g     F .text	00000064 __mpa_full_adder
0000ebfc g     F .text	000000ec __mpa_abs_sub
00055c30 g       .bss	00000000 __gprof_buf_start
000076aa g     F .text	00000026 free
00006b0c g     F .text	000000c4 bstats
00002db0 g     F .text	000000f6 TEE_MACComputeFinal



Disassembly of section .text:

00000020 <g_TA_printf>:
g_TA_printf():
/home/wangzh/software/OP-TEE/fingerprint/ta/my_test_handle.c:95
      20:	e96d 7e02 	strd	r7, lr, [sp, #-8]!
      24:	b086      	sub	sp, #24
      26:	af02      	add	r7, sp, #8
      28:	6078      	str	r0, [r7, #4]
      2a:	6039      	str	r1, [r7, #0]
/home/wangzh/software/OP-TEE/fingerprint/ta/my_test_handle.c:96
      2c:	f04f 0300 	mov.w	r3, #0
      30:	60fb      	str	r3, [r7, #12]
/home/wangzh/software/OP-TEE/fingerprint/ta/my_test_handle.c:97
      32:	f04f 0300 	mov.w	r3, #0
      36:	60fb      	str	r3, [r7, #12]
      38:	e02a      	b.n	90 <g_TA_printf+0x70>
/home/wangzh/software/OP-TEE/fingerprint/ta/my_test_handle.c:99
      3a:	68fb      	ldr	r3, [r7, #12]
      3c:	2b0e      	cmp	r3, #14
      3e:	d911      	bls.n	64 <g_TA_printf+0x44>
/home/wangzh/software/OP-TEE/fingerprint/ta/my_test_handle.c:103
      40:	68fb      	ldr	r3, [r7, #12]
      42:	f003 030f 	and.w	r3, r3, #15
      46:	2b00      	cmp	r3, #0
      48:	d10c      	bne.n	64 <g_TA_printf+0x44>
/home/wangzh/software/OP-TEE/fingerprint/ta/my_test_handle.c:105
      4a:	4b1c      	ldr	r3, [pc, #112]	; (bc <g_TA_printf+0x9c>)
      4c:	447b      	add	r3, pc
      4e:	9300      	str	r3, [sp, #0]
      50:	f04f 0301 	mov.w	r3, #1
      54:	f04f 0203 	mov.w	r2, #3
      58:	f04f 0169 	mov.w	r1, #105	; 0x69
      5c:	4818      	ldr	r0, [pc, #96]	; (c0 <g_TA_printf+0xa0>)
      5e:	4478      	add	r0, pc
      60:	f008 fd36 	bl	8ad0 <trace_printf>
/home/wangzh/software/OP-TEE/fingerprint/ta/my_test_handle.c:111 (discriminator 2)
      64:	687a      	ldr	r2, [r7, #4]
      66:	68fb      	ldr	r3, [r7, #12]
      68:	4413      	add	r3, r2
      6a:	781b      	ldrb	r3, [r3, #0]
      6c:	9301      	str	r3, [sp, #4]
      6e:	4b15      	ldr	r3, [pc, #84]	; (c4 <g_TA_printf+0xa4>)
      70:	447b      	add	r3, pc
      72:	9300      	str	r3, [sp, #0]
      74:	f04f 0301 	mov.w	r3, #1
      78:	f04f 0203 	mov.w	r2, #3
      7c:	f04f 016f 	mov.w	r1, #111	; 0x6f
      80:	4811      	ldr	r0, [pc, #68]	; (c8 <g_TA_printf+0xa8>)
      82:	4478      	add	r0, pc
      84:	f008 fd24 	bl	8ad0 <trace_printf>
/home/wangzh/software/OP-TEE/fingerprint/ta/my_test_handle.c:97 (discriminator 2)
      88:	68fb      	ldr	r3, [r7, #12]
      8a:	f103 0301 	add.w	r3, r3, #1
      8e:	60fb      	str	r3, [r7, #12]
/home/wangzh/software/OP-TEE/fingerprint/ta/my_test_handle.c:97 (discriminator 1)
      90:	68fa      	ldr	r2, [r7, #12]
      92:	683b      	ldr	r3, [r7, #0]
      94:	429a      	cmp	r2, r3
      96:	d3d0      	bcc.n	3a <g_TA_printf+0x1a>
/home/wangzh/software/OP-TEE/fingerprint/ta/my_test_handle.c:113
      98:	4b0c      	ldr	r3, [pc, #48]	; (cc <g_TA_printf+0xac>)
      9a:	447b      	add	r3, pc
      9c:	9300      	str	r3, [sp, #0]
      9e:	f04f 0301 	mov.w	r3, #1
      a2:	f04f 0203 	mov.w	r2, #3
      a6:	f04f 0171 	mov.w	r1, #113	; 0x71
      aa:	4809      	ldr	r0, [pc, #36]	; (d0 <g_TA_printf+0xb0>)
      ac:	4478      	add	r0, pc
      ae:	f008 fd0f 	bl	8ad0 <trace_printf>
/home/wangzh/software/OP-TEE/fingerprint/ta/my_test_handle.c:114
      b2:	bf00      	nop
      b4:	f107 0710 	add.w	r7, r7, #16
      b8:	46bd      	mov	sp, r7
      ba:	bd80      	pop	{r7, pc}
      bc:	0000f980 	.word	0x0000f980
      c0:	0000fa8e 	.word	0x0000fa8e
      c4:	0000f960 	.word	0x0000f960
      c8:	0000fa6a 	.word	0x0000fa6a
      cc:	0000f942 	.word	0x0000f942
      d0:	0000fa40 	.word	0x0000fa40

000000d4 <l_CryptoTaHash_sha>:
l_CryptoTaHash_sha():
/home/wangzh/software/OP-TEE/fingerprint/ta/my_test_handle.c:130
      d4:	e96d 7e02 	strd	r7, lr, [sp, #-8]!
      d8:	b08c      	sub	sp, #48	; 0x30
      da:	af04      	add	r7, sp, #16
      dc:	60f8      	str	r0, [r7, #12]
      de:	60b9      	str	r1, [r7, #8]
      e0:	607a      	str	r2, [r7, #4]
      e2:	603b      	str	r3, [r7, #0]
/home/wangzh/software/OP-TEE/fingerprint/ta/my_test_handle.c:134
      e4:	f04f 0300 	mov.w	r3, #0
      e8:	61bb      	str	r3, [r7, #24]
/home/wangzh/software/OP-TEE/fingerprint/ta/my_test_handle.c:136
      ea:	683b      	ldr	r3, [r7, #0]
      ec:	9302      	str	r3, [sp, #8]
      ee:	687b      	ldr	r3, [r7, #4]
      f0:	9301      	str	r3, [sp, #4]
      f2:	4b59      	ldr	r3, [pc, #356]	; (258 <l_CryptoTaHash_sha+0x184>)
      f4:	447b      	add	r3, pc
      f6:	9300      	str	r3, [sp, #0]
      f8:	f04f 0301 	mov.w	r3, #1
      fc:	f04f 0203 	mov.w	r2, #3
     100:	f04f 0188 	mov.w	r1, #136	; 0x88
     104:	4855      	ldr	r0, [pc, #340]	; (25c <l_CryptoTaHash_sha+0x188>)
     106:	4478      	add	r0, pc
     108:	f008 fce2 	bl	8ad0 <trace_printf>
/home/wangzh/software/OP-TEE/fingerprint/ta/my_test_handle.c:140
     10c:	68fb      	ldr	r3, [r7, #12]
     10e:	2b01      	cmp	r3, #1
     110:	d002      	beq.n	118 <l_CryptoTaHash_sha+0x44>
     112:	2b03      	cmp	r3, #3
     114:	d013      	beq.n	13e <l_CryptoTaHash_sha+0x6a>
     116:	e018      	b.n	14a <l_CryptoTaHash_sha+0x76>
/home/wangzh/software/OP-TEE/fingerprint/ta/my_test_handle.c:143
     118:	4b51      	ldr	r3, [pc, #324]	; (260 <l_CryptoTaHash_sha+0x18c>)
     11a:	447b      	add	r3, pc
     11c:	9300      	str	r3, [sp, #0]
     11e:	f04f 0301 	mov.w	r3, #1
     122:	f04f 0203 	mov.w	r2, #3
     126:	f04f 018f 	mov.w	r1, #143	; 0x8f
     12a:	484e      	ldr	r0, [pc, #312]	; (264 <l_CryptoTaHash_sha+0x190>)
     12c:	4478      	add	r0, pc
     12e:	f008 fccf 	bl	8ad0 <trace_printf>
/home/wangzh/software/OP-TEE/fingerprint/ta/my_test_handle.c:144
     132:	f04f 0302 	mov.w	r3, #2
     136:	f2c5 0300 	movt	r3, #20480	; 0x5000
     13a:	61fb      	str	r3, [r7, #28]
/home/wangzh/software/OP-TEE/fingerprint/ta/my_test_handle.c:145
     13c:	e00c      	b.n	158 <l_CryptoTaHash_sha+0x84>
/home/wangzh/software/OP-TEE/fingerprint/ta/my_test_handle.c:147
     13e:	f04f 0304 	mov.w	r3, #4
     142:	f2c5 0300 	movt	r3, #20480	; 0x5000
     146:	61fb      	str	r3, [r7, #28]
/home/wangzh/software/OP-TEE/fingerprint/ta/my_test_handle.c:148
     148:	e006      	b.n	158 <l_CryptoTaHash_sha+0x84>
/home/wangzh/software/OP-TEE/fingerprint/ta/my_test_handle.c:150
     14a:	f04f 33ff 	mov.w	r3, #4294967295	; 0xffffffff
     14e:	61fb      	str	r3, [r7, #28]
/home/wangzh/software/OP-TEE/fingerprint/ta/my_test_handle.c:151
     150:	f04f 33ff 	mov.w	r3, #4294967295	; 0xffffffff
     154:	61bb      	str	r3, [r7, #24]
/home/wangzh/software/OP-TEE/fingerprint/ta/my_test_handle.c:152
     156:	e078      	b.n	24a <l_CryptoTaHash_sha+0x176>
/home/wangzh/software/OP-TEE/fingerprint/ta/my_test_handle.c:158
     158:	f107 0010 	add.w	r0, r7, #16
     15c:	f04f 0300 	mov.w	r3, #0
     160:	f04f 0205 	mov.w	r2, #5
     164:	69f9      	ldr	r1, [r7, #28]
     166:	f001 f8cf 	bl	1308 <TEE_AllocateOperation>
     16a:	6178      	str	r0, [r7, #20]
/home/wangzh/software/OP-TEE/fingerprint/ta/my_test_handle.c:159
     16c:	697b      	ldr	r3, [r7, #20]
     16e:	2b00      	cmp	r3, #0
     170:	d010      	beq.n	194 <l_CryptoTaHash_sha+0xc0>
/home/wangzh/software/OP-TEE/fingerprint/ta/my_test_handle.c:161
     172:	4b3d      	ldr	r3, [pc, #244]	; (268 <l_CryptoTaHash_sha+0x194>)
     174:	447b      	add	r3, pc
     176:	9300      	str	r3, [sp, #0]
     178:	f04f 0301 	mov.w	r3, #1
     17c:	f04f 0203 	mov.w	r2, #3
     180:	f04f 01a1 	mov.w	r1, #161	; 0xa1
     184:	4839      	ldr	r0, [pc, #228]	; (26c <l_CryptoTaHash_sha+0x198>)
     186:	4478      	add	r0, pc
     188:	f008 fca2 	bl	8ad0 <trace_printf>
/home/wangzh/software/OP-TEE/fingerprint/ta/my_test_handle.c:162
     18c:	f04f 33ff 	mov.w	r3, #4294967295	; 0xffffffff
     190:	61bb      	str	r3, [r7, #24]
/home/wangzh/software/OP-TEE/fingerprint/ta/my_test_handle.c:163
     192:	e05a      	b.n	24a <l_CryptoTaHash_sha+0x176>
/home/wangzh/software/OP-TEE/fingerprint/ta/my_test_handle.c:166
     194:	693b      	ldr	r3, [r7, #16]
     196:	687a      	ldr	r2, [r7, #4]
     198:	68b9      	ldr	r1, [r7, #8]
     19a:	4618      	mov	r0, r3
     19c:	f002 f926 	bl	23ec <TEE_DigestUpdate>
/home/wangzh/software/OP-TEE/fingerprint/ta/my_test_handle.c:169
     1a0:	6938      	ldr	r0, [r7, #16]
     1a2:	6abb      	ldr	r3, [r7, #40]	; 0x28
     1a4:	9300      	str	r3, [sp, #0]
     1a6:	683b      	ldr	r3, [r7, #0]
     1a8:	f04f 0200 	mov.w	r2, #0
     1ac:	f04f 0100 	mov.w	r1, #0
     1b0:	f002 f94a 	bl	2448 <TEE_DigestDoFinal>
     1b4:	6178      	str	r0, [r7, #20]
/home/wangzh/software/OP-TEE/fingerprint/ta/my_test_handle.c:170
     1b6:	6abb      	ldr	r3, [r7, #40]	; 0x28
     1b8:	681b      	ldr	r3, [r3, #0]
     1ba:	9301      	str	r3, [sp, #4]
     1bc:	4b2c      	ldr	r3, [pc, #176]	; (270 <l_CryptoTaHash_sha+0x19c>)
     1be:	447b      	add	r3, pc
     1c0:	9300      	str	r3, [sp, #0]
     1c2:	f04f 0301 	mov.w	r3, #1
     1c6:	f04f 0203 	mov.w	r2, #3
     1ca:	f04f 01aa 	mov.w	r1, #170	; 0xaa
     1ce:	4829      	ldr	r0, [pc, #164]	; (274 <l_CryptoTaHash_sha+0x1a0>)
     1d0:	4478      	add	r0, pc
     1d2:	f008 fc7d 	bl	8ad0 <trace_printf>
/home/wangzh/software/OP-TEE/fingerprint/ta/my_test_handle.c:171
     1d6:	697b      	ldr	r3, [r7, #20]
     1d8:	9301      	str	r3, [sp, #4]
     1da:	4b27      	ldr	r3, [pc, #156]	; (278 <l_CryptoTaHash_sha+0x1a4>)
     1dc:	447b      	add	r3, pc
     1de:	9300      	str	r3, [sp, #0]
     1e0:	f04f 0301 	mov.w	r3, #1
     1e4:	f04f 0203 	mov.w	r2, #3
     1e8:	f04f 01ab 	mov.w	r1, #171	; 0xab
     1ec:	4823      	ldr	r0, [pc, #140]	; (27c <l_CryptoTaHash_sha+0x1a8>)
     1ee:	4478      	add	r0, pc
     1f0:	f008 fc6e 	bl	8ad0 <trace_printf>
/home/wangzh/software/OP-TEE/fingerprint/ta/my_test_handle.c:173
     1f4:	697b      	ldr	r3, [r7, #20]
     1f6:	2b00      	cmp	r3, #0
     1f8:	d010      	beq.n	21c <l_CryptoTaHash_sha+0x148>
/home/wangzh/software/OP-TEE/fingerprint/ta/my_test_handle.c:175
     1fa:	4b21      	ldr	r3, [pc, #132]	; (280 <l_CryptoTaHash_sha+0x1ac>)
     1fc:	447b      	add	r3, pc
     1fe:	9300      	str	r3, [sp, #0]
     200:	f04f 0301 	mov.w	r3, #1
     204:	f04f 0203 	mov.w	r2, #3
     208:	f04f 01af 	mov.w	r1, #175	; 0xaf
     20c:	481d      	ldr	r0, [pc, #116]	; (284 <l_CryptoTaHash_sha+0x1b0>)
     20e:	4478      	add	r0, pc
     210:	f008 fc5e 	bl	8ad0 <trace_printf>
/home/wangzh/software/OP-TEE/fingerprint/ta/my_test_handle.c:176
     214:	f04f 33ff 	mov.w	r3, #4294967295	; 0xffffffff
     218:	61bb      	str	r3, [r7, #24]
/home/wangzh/software/OP-TEE/fingerprint/ta/my_test_handle.c:177
     21a:	e012      	b.n	242 <l_CryptoTaHash_sha+0x16e>
/home/wangzh/software/OP-TEE/fingerprint/ta/my_test_handle.c:180
     21c:	4b1a      	ldr	r3, [pc, #104]	; (288 <l_CryptoTaHash_sha+0x1b4>)
     21e:	447b      	add	r3, pc
     220:	9300      	str	r3, [sp, #0]
     222:	f04f 0301 	mov.w	r3, #1
     226:	f04f 0203 	mov.w	r2, #3
     22a:	f04f 01b4 	mov.w	r1, #180	; 0xb4
     22e:	4817      	ldr	r0, [pc, #92]	; (28c <l_CryptoTaHash_sha+0x1b8>)
     230:	4478      	add	r0, pc
     232:	f008 fc4d 	bl	8ad0 <trace_printf>
/home/wangzh/software/OP-TEE/fingerprint/ta/my_test_handle.c:181
     236:	6abb      	ldr	r3, [r7, #40]	; 0x28
     238:	681b      	ldr	r3, [r3, #0]
     23a:	4619      	mov	r1, r3
     23c:	6838      	ldr	r0, [r7, #0]
     23e:	f7ff feef 	bl	20 <g_TA_printf>
/home/wangzh/software/OP-TEE/fingerprint/ta/my_test_handle.c:185
     242:	693b      	ldr	r3, [r7, #16]
     244:	4618      	mov	r0, r3
     246:	f001 fcff 	bl	1c48 <TEE_FreeOperation>
/home/wangzh/software/OP-TEE/fingerprint/ta/my_test_handle.c:187
     24a:	69bb      	ldr	r3, [r7, #24]
/home/wangzh/software/OP-TEE/fingerprint/ta/my_test_handle.c:188
     24c:	4618      	mov	r0, r3
     24e:	f107 0720 	add.w	r7, r7, #32
     252:	46bd      	mov	sp, r7
     254:	bd80      	pop	{r7, pc}
     256:	bf00      	nop
     258:	0000f8ec 	.word	0x0000f8ec
     25c:	0000f9f2 	.word	0x0000f9f2
     260:	0000f8f2 	.word	0x0000f8f2
     264:	0000f9cc 	.word	0x0000f9cc
     268:	0000f8b0 	.word	0x0000f8b0
     26c:	0000f972 	.word	0x0000f972
     270:	0000f88a 	.word	0x0000f88a
     274:	0000f928 	.word	0x0000f928
     278:	0000f888 	.word	0x0000f888
     27c:	0000f90a 	.word	0x0000f90a
     280:	0000f884 	.word	0x0000f884
     284:	0000f8ea 	.word	0x0000f8ea
     288:	0000f886 	.word	0x0000f886
     28c:	0000f8c8 	.word	0x0000f8c8

00000290 <l_CryptoTaOther_Random>:
l_CryptoTaOther_Random():
/home/wangzh/software/OP-TEE/fingerprint/ta/my_test_handle.c:191
     290:	e96d 7e02 	strd	r7, lr, [sp, #-8]!
     294:	b084      	sub	sp, #16
     296:	af02      	add	r7, sp, #8
     298:	6078      	str	r0, [r7, #4]
     29a:	6039      	str	r1, [r7, #0]
/home/wangzh/software/OP-TEE/fingerprint/ta/my_test_handle.c:192
     29c:	4b0a      	ldr	r3, [pc, #40]	; (2c8 <l_CryptoTaOther_Random+0x38>)
     29e:	447b      	add	r3, pc
     2a0:	9300      	str	r3, [sp, #0]
     2a2:	f04f 0301 	mov.w	r3, #1
     2a6:	f04f 0203 	mov.w	r2, #3
     2aa:	f04f 01c0 	mov.w	r1, #192	; 0xc0
     2ae:	4807      	ldr	r0, [pc, #28]	; (2cc <l_CryptoTaOther_Random+0x3c>)
     2b0:	4478      	add	r0, pc
     2b2:	f008 fc0d 	bl	8ad0 <trace_printf>
/home/wangzh/software/OP-TEE/fingerprint/ta/my_test_handle.c:193
     2b6:	6879      	ldr	r1, [r7, #4]
     2b8:	6838      	ldr	r0, [r7, #0]
     2ba:	f003 fd9d 	bl	3df8 <TEE_GenerateRandom>
/home/wangzh/software/OP-TEE/fingerprint/ta/my_test_handle.c:194
     2be:	bf00      	nop
     2c0:	f107 0708 	add.w	r7, r7, #8
     2c4:	46bd      	mov	sp, r7
     2c6:	bd80      	pop	{r7, pc}
     2c8:	0000f826 	.word	0x0000f826
     2cc:	0000f85c 	.word	0x0000f85c

000002d0 <g_CryptoTaHandle_Sha>:
g_CryptoTaHandle_Sha():
/home/wangzh/software/OP-TEE/fingerprint/ta/my_test_handle.c:203
     2d0:	e96d 7e02 	strd	r7, lr, [sp, #-8]!
     2d4:	b08a      	sub	sp, #40	; 0x28
     2d6:	af02      	add	r7, sp, #8
     2d8:	6078      	str	r0, [r7, #4]
     2da:	6039      	str	r1, [r7, #0]
/home/wangzh/software/OP-TEE/fingerprint/ta/my_test_handle.c:205
     2dc:	f04f 0300 	mov.w	r3, #0
     2e0:	61fb      	str	r3, [r7, #28]
/home/wangzh/software/OP-TEE/fingerprint/ta/my_test_handle.c:206
     2e2:	f04f 0300 	mov.w	r3, #0
     2e6:	61bb      	str	r3, [r7, #24]
/home/wangzh/software/OP-TEE/fingerprint/ta/my_test_handle.c:207
     2e8:	f04f 0300 	mov.w	r3, #0
     2ec:	617b      	str	r3, [r7, #20]
/home/wangzh/software/OP-TEE/fingerprint/ta/my_test_handle.c:208
     2ee:	f04f 0300 	mov.w	r3, #0
     2f2:	60bb      	str	r3, [r7, #8]
/home/wangzh/software/OP-TEE/fingerprint/ta/my_test_handle.c:210
     2f4:	687b      	ldr	r3, [r7, #4]
     2f6:	613b      	str	r3, [r7, #16]
/home/wangzh/software/OP-TEE/fingerprint/ta/my_test_handle.c:212
     2f8:	693b      	ldr	r3, [r7, #16]
     2fa:	9301      	str	r3, [sp, #4]
     2fc:	4b18      	ldr	r3, [pc, #96]	; (360 <g_CryptoTaHandle_Sha+0x90>)
     2fe:	447b      	add	r3, pc
     300:	9300      	str	r3, [sp, #0]
     302:	f04f 0301 	mov.w	r3, #1
     306:	f04f 0203 	mov.w	r2, #3
     30a:	f04f 01d4 	mov.w	r1, #212	; 0xd4
     30e:	4815      	ldr	r0, [pc, #84]	; (364 <g_CryptoTaHandle_Sha+0x94>)
     310:	4478      	add	r0, pc
     312:	f008 fbdd 	bl	8ad0 <trace_printf>
/home/wangzh/software/OP-TEE/fingerprint/ta/my_test_handle.c:215
     316:	683b      	ldr	r3, [r7, #0]
     318:	681b      	ldr	r3, [r3, #0]
     31a:	61fb      	str	r3, [r7, #28]
/home/wangzh/software/OP-TEE/fingerprint/ta/my_test_handle.c:216
     31c:	683b      	ldr	r3, [r7, #0]
     31e:	685b      	ldr	r3, [r3, #4]
     320:	617b      	str	r3, [r7, #20]
/home/wangzh/software/OP-TEE/fingerprint/ta/my_test_handle.c:217
     322:	683b      	ldr	r3, [r7, #0]
     324:	f103 0308 	add.w	r3, r3, #8
     328:	681b      	ldr	r3, [r3, #0]
     32a:	60fb      	str	r3, [r7, #12]
/home/wangzh/software/OP-TEE/fingerprint/ta/my_test_handle.c:218
     32c:	683b      	ldr	r3, [r7, #0]
     32e:	f103 0310 	add.w	r3, r3, #16
     332:	681b      	ldr	r3, [r3, #0]
     334:	61bb      	str	r3, [r7, #24]
/home/wangzh/software/OP-TEE/fingerprint/ta/my_test_handle.c:219
     336:	683b      	ldr	r3, [r7, #0]
     338:	f103 0310 	add.w	r3, r3, #16
     33c:	685b      	ldr	r3, [r3, #4]
     33e:	60bb      	str	r3, [r7, #8]
/home/wangzh/software/OP-TEE/fingerprint/ta/my_test_handle.c:222
     340:	f107 0308 	add.w	r3, r7, #8
     344:	9300      	str	r3, [sp, #0]
     346:	69bb      	ldr	r3, [r7, #24]
     348:	697a      	ldr	r2, [r7, #20]
     34a:	69f9      	ldr	r1, [r7, #28]
     34c:	68f8      	ldr	r0, [r7, #12]
     34e:	f7ff fec1 	bl	d4 <l_CryptoTaHash_sha>
/home/wangzh/software/OP-TEE/fingerprint/ta/my_test_handle.c:224
     352:	f04f 0300 	mov.w	r3, #0
/home/wangzh/software/OP-TEE/fingerprint/ta/my_test_handle.c:225
     356:	4618      	mov	r0, r3
     358:	f107 0720 	add.w	r7, r7, #32
     35c:	46bd      	mov	sp, r7
     35e:	bd80      	pop	{r7, pc}
     360:	0000f7d6 	.word	0x0000f7d6
     364:	0000f814 	.word	0x0000f814

00000368 <g_CryptoTaHandle_Random>:
g_CryptoTaHandle_Random():
/home/wangzh/software/OP-TEE/fingerprint/ta/my_test_handle.c:230
     368:	e96d 7e02 	strd	r7, lr, [sp, #-8]!
     36c:	b088      	sub	sp, #32
     36e:	af02      	add	r7, sp, #8
     370:	6078      	str	r0, [r7, #4]
     372:	6039      	str	r1, [r7, #0]
/home/wangzh/software/OP-TEE/fingerprint/ta/my_test_handle.c:231
     374:	f04f 0300 	mov.w	r3, #0
     378:	617b      	str	r3, [r7, #20]
/home/wangzh/software/OP-TEE/fingerprint/ta/my_test_handle.c:232
     37a:	f04f 0300 	mov.w	r3, #0
     37e:	613b      	str	r3, [r7, #16]
/home/wangzh/software/OP-TEE/fingerprint/ta/my_test_handle.c:234
     380:	687b      	ldr	r3, [r7, #4]
     382:	60fb      	str	r3, [r7, #12]
/home/wangzh/software/OP-TEE/fingerprint/ta/my_test_handle.c:236
     384:	68fb      	ldr	r3, [r7, #12]
     386:	9301      	str	r3, [sp, #4]
     388:	4b0e      	ldr	r3, [pc, #56]	; (3c4 <g_CryptoTaHandle_Random+0x5c>)
     38a:	447b      	add	r3, pc
     38c:	9300      	str	r3, [sp, #0]
     38e:	f04f 0301 	mov.w	r3, #1
     392:	f04f 0203 	mov.w	r2, #3
     396:	f04f 01ec 	mov.w	r1, #236	; 0xec
     39a:	480b      	ldr	r0, [pc, #44]	; (3c8 <g_CryptoTaHandle_Random+0x60>)
     39c:	4478      	add	r0, pc
     39e:	f008 fb97 	bl	8ad0 <trace_printf>
/home/wangzh/software/OP-TEE/fingerprint/ta/my_test_handle.c:239
     3a2:	683b      	ldr	r3, [r7, #0]
     3a4:	685b      	ldr	r3, [r3, #4]
     3a6:	617b      	str	r3, [r7, #20]
/home/wangzh/software/OP-TEE/fingerprint/ta/my_test_handle.c:240
     3a8:	683b      	ldr	r3, [r7, #0]
     3aa:	681b      	ldr	r3, [r3, #0]
     3ac:	613b      	str	r3, [r7, #16]
/home/wangzh/software/OP-TEE/fingerprint/ta/my_test_handle.c:242
     3ae:	6939      	ldr	r1, [r7, #16]
     3b0:	6978      	ldr	r0, [r7, #20]
     3b2:	f7ff ff6d 	bl	290 <l_CryptoTaOther_Random>
/home/wangzh/software/OP-TEE/fingerprint/ta/my_test_handle.c:244
     3b6:	f04f 0300 	mov.w	r3, #0
/home/wangzh/software/OP-TEE/fingerprint/ta/my_test_handle.c:245
     3ba:	4618      	mov	r0, r3
     3bc:	f107 0718 	add.w	r7, r7, #24
     3c0:	46bd      	mov	sp, r7
     3c2:	bd80      	pop	{r7, pc}
     3c4:	0000f74a 	.word	0x0000f74a
     3c8:	0000f7a0 	.word	0x0000f7a0

000003cc <g_CryptoTaHandle_Rand>:
g_CryptoTaHandle_Rand():
/home/wangzh/software/OP-TEE/fingerprint/ta/my_test_handle.c:249
     3cc:	e96d 7e02 	strd	r7, lr, [sp, #-8]!
     3d0:	f5ad 5d90 	sub.w	sp, sp, #4608	; 0x1200
     3d4:	b084      	sub	sp, #16
     3d6:	af00      	add	r7, sp, #0
     3d8:	f107 0310 	add.w	r3, r7, #16
     3dc:	f1a3 030c 	sub.w	r3, r3, #12
     3e0:	6018      	str	r0, [r3, #0]
     3e2:	f107 0310 	add.w	r3, r7, #16
     3e6:	f1a3 0310 	sub.w	r3, r3, #16
     3ea:	6019      	str	r1, [r3, #0]
/home/wangzh/software/OP-TEE/fingerprint/ta/my_test_handle.c:252
     3ec:	f107 0310 	add.w	r3, r7, #16
     3f0:	f1a3 0308 	sub.w	r3, r3, #8
     3f4:	4618      	mov	r0, r3
     3f6:	f44f 5390 	mov.w	r3, #4608	; 0x1200
     3fa:	461a      	mov	r2, r3
     3fc:	f04f 0100 	mov.w	r1, #0
     400:	f00b ff74 	bl	c2ec <memset>
/home/wangzh/software/OP-TEE/fingerprint/ta/my_test_handle.c:254
     404:	f107 0310 	add.w	r3, r7, #16
     408:	f1a3 0310 	sub.w	r3, r3, #16
     40c:	681b      	ldr	r3, [r3, #0]
     40e:	681b      	ldr	r3, [r3, #0]
     410:	f507 5290 	add.w	r2, r7, #4608	; 0x1200
     414:	f102 020c 	add.w	r2, r2, #12
     418:	6013      	str	r3, [r2, #0]
/home/wangzh/software/OP-TEE/fingerprint/ta/my_test_handle.c:255
     41a:	f04f 0318 	mov.w	r3, #24
     41e:	f507 5290 	add.w	r2, r7, #4608	; 0x1200
     422:	f102 0208 	add.w	r2, r2, #8
     426:	6013      	str	r3, [r2, #0]
/home/wangzh/software/OP-TEE/fingerprint/ta/my_test_handle.c:256
     428:	f107 0310 	add.w	r3, r7, #16
     42c:	f1a3 030c 	sub.w	r3, r3, #12
     430:	f107 0210 	add.w	r2, r7, #16
     434:	f1a2 020c 	sub.w	r2, r2, #12
     438:	6812      	ldr	r2, [r2, #0]
     43a:	601a      	str	r2, [r3, #0]
/home/wangzh/software/OP-TEE/fingerprint/ta/my_test_handle.c:257
     43c:	f107 0310 	add.w	r3, r7, #16
     440:	f1a3 0310 	sub.w	r3, r3, #16
     444:	f107 0210 	add.w	r2, r7, #16
     448:	f1a2 0210 	sub.w	r2, r2, #16
     44c:	6812      	ldr	r2, [r2, #0]
     44e:	601a      	str	r2, [r3, #0]
/home/wangzh/software/OP-TEE/fingerprint/ta/my_test_handle.c:259
     450:	f107 0310 	add.w	r3, r7, #16
     454:	f1a3 0308 	sub.w	r3, r3, #8
     458:	461a      	mov	r2, r3
     45a:	f507 5390 	add.w	r3, r7, #4608	; 0x1200
     45e:	f103 0308 	add.w	r3, r3, #8
     462:	6819      	ldr	r1, [r3, #0]
     464:	f507 5390 	add.w	r3, r7, #4608	; 0x1200
     468:	f103 0308 	add.w	r3, r3, #8
     46c:	6818      	ldr	r0, [r3, #0]
     46e:	ed9f 1b0e 	vldr	d1, [pc, #56]	; 4a8 <g_CryptoTaHandle_Rand+0xdc>
     472:	ed9f 0b0f 	vldr	d0, [pc, #60]	; 4b0 <g_CryptoTaHandle_Rand+0xe4>
     476:	f000 fb81 	bl	b7c <normrnd>
/home/wangzh/software/OP-TEE/fingerprint/ta/my_test_handle.c:261
     47a:	f107 0310 	add.w	r3, r7, #16
     47e:	f1a3 0308 	sub.w	r3, r3, #8
     482:	4619      	mov	r1, r3
     484:	f507 5390 	add.w	r3, r7, #4608	; 0x1200
     488:	f103 030c 	add.w	r3, r3, #12
     48c:	6818      	ldr	r0, [r3, #0]
     48e:	f000 fc4d 	bl	d2c <MatrixCopy>
/home/wangzh/software/OP-TEE/fingerprint/ta/my_test_handle.c:271
     492:	f04f 0300 	mov.w	r3, #0
/home/wangzh/software/OP-TEE/fingerprint/ta/my_test_handle.c:272
     496:	4618      	mov	r0, r3
     498:	f507 5790 	add.w	r7, r7, #4608	; 0x1200
     49c:	f107 0710 	add.w	r7, r7, #16
     4a0:	46bd      	mov	sp, r7
     4a2:	bd80      	pop	{r7, pc}
     4a4:	f3af 8000 	nop.w
     4a8:	aa3ad18d 	.word	0xaa3ad18d
     4ac:	3fca209a 	.word	0x3fca209a
	...

000004b8 <g_CryptoTaHandle_GS>:
g_CryptoTaHandle_GS():
/home/wangzh/software/OP-TEE/fingerprint/ta/my_test_handle.c:274
     4b8:	e96d 7e02 	strd	r7, lr, [sp, #-8]!
     4bc:	b084      	sub	sp, #16
     4be:	af00      	add	r7, sp, #0
     4c0:	6078      	str	r0, [r7, #4]
     4c2:	6039      	str	r1, [r7, #0]
/home/wangzh/software/OP-TEE/fingerprint/ta/my_test_handle.c:275
     4c4:	683b      	ldr	r3, [r7, #0]
     4c6:	681b      	ldr	r3, [r3, #0]
     4c8:	60fb      	str	r3, [r7, #12]
/home/wangzh/software/OP-TEE/fingerprint/ta/my_test_handle.c:277
     4ca:	68f9      	ldr	r1, [r7, #12]
     4cc:	68f8      	ldr	r0, [r7, #12]
     4ce:	f00a f959 	bl	a784 <GS>
/home/wangzh/software/OP-TEE/fingerprint/ta/my_test_handle.c:278
     4d2:	f04f 0300 	mov.w	r3, #0
/home/wangzh/software/OP-TEE/fingerprint/ta/my_test_handle.c:280
     4d6:	4618      	mov	r0, r3
     4d8:	f107 0710 	add.w	r7, r7, #16
     4dc:	46bd      	mov	sp, r7
     4de:	bd80      	pop	{r7, pc}

000004e0 <g_CryptoTaHandle_GenModle>:
g_CryptoTaHandle_GenModle():
/home/wangzh/software/OP-TEE/fingerprint/ta/my_test_handle.c:281
     4e0:	f84d 4d0c 	str.w	r4, [sp, #-12]!
     4e4:	e9cd 7e01 	strd	r7, lr, [sp, #4]
     4e8:	f5ad 5d11 	sub.w	sp, sp, #9280	; 0x2440
     4ec:	b087      	sub	sp, #28
     4ee:	af02      	add	r7, sp, #8
     4f0:	f107 0310 	add.w	r3, r7, #16
     4f4:	f1a3 030c 	sub.w	r3, r3, #12
     4f8:	6018      	str	r0, [r3, #0]
     4fa:	f107 0310 	add.w	r3, r7, #16
     4fe:	f1a3 0310 	sub.w	r3, r3, #16
     502:	6019      	str	r1, [r3, #0]
/home/wangzh/software/OP-TEE/fingerprint/ta/my_test_handle.c:287
     504:	f107 0310 	add.w	r3, r7, #16
     508:	f1a3 0310 	sub.w	r3, r3, #16
     50c:	681b      	ldr	r3, [r3, #0]
     50e:	681b      	ldr	r3, [r3, #0]
     510:	f507 5210 	add.w	r2, r7, #9216	; 0x2400
     514:	f102 0218 	add.w	r2, r2, #24
     518:	6013      	str	r3, [r2, #0]
/home/wangzh/software/OP-TEE/fingerprint/ta/my_test_handle.c:288
     51a:	f507 5390 	add.w	r3, r7, #4608	; 0x1200
     51e:	f103 0310 	add.w	r3, r3, #16
     522:	4618      	mov	r0, r3
     524:	f44f 5390 	mov.w	r3, #4608	; 0x1200
     528:	461a      	mov	r2, r3
     52a:	f04f 0100 	mov.w	r1, #0
     52e:	f00b fedd 	bl	c2ec <memset>
/home/wangzh/software/OP-TEE/fingerprint/ta/my_test_handle.c:289
     532:	f107 0310 	add.w	r3, r7, #16
     536:	4618      	mov	r0, r3
     538:	f44f 5390 	mov.w	r3, #4608	; 0x1200
     53c:	461a      	mov	r2, r3
     53e:	f04f 0100 	mov.w	r1, #0
     542:	f00b fed3 	bl	c2ec <memset>
/home/wangzh/software/OP-TEE/fingerprint/ta/my_test_handle.c:290
     546:	f04f 0318 	mov.w	r3, #24
     54a:	f507 5210 	add.w	r2, r7, #9216	; 0x2400
     54e:	f102 0214 	add.w	r2, r2, #20
     552:	6013      	str	r3, [r2, #0]
/home/wangzh/software/OP-TEE/fingerprint/ta/my_test_handle.c:291
     554:	f107 0310 	add.w	r3, r7, #16
     558:	f1a3 0304 	sub.w	r3, r3, #4
     55c:	f04f 0200 	mov.w	r2, #0
     560:	601a      	str	r2, [r3, #0]
/home/wangzh/software/OP-TEE/fingerprint/ta/my_test_handle.c:293
     562:	f107 0310 	add.w	r3, r7, #16
     566:	f1a3 030c 	sub.w	r3, r3, #12
     56a:	f107 0210 	add.w	r2, r7, #16
     56e:	f1a2 020c 	sub.w	r2, r2, #12
     572:	6812      	ldr	r2, [r2, #0]
     574:	601a      	str	r2, [r3, #0]
/home/wangzh/software/OP-TEE/fingerprint/ta/my_test_handle.c:303
     576:	f107 0310 	add.w	r3, r7, #16
     57a:	f1a3 0310 	sub.w	r3, r3, #16
     57e:	681b      	ldr	r3, [r3, #0]
     580:	f103 0310 	add.w	r3, r3, #16
     584:	681b      	ldr	r3, [r3, #0]
     586:	2b00      	cmp	r3, #0
     588:	d131      	bne.n	5ee <g_CryptoTaHandle_GenModle+0x10e>
/home/wangzh/software/OP-TEE/fingerprint/ta/my_test_handle.c:305
     58a:	f507 5390 	add.w	r3, r7, #4608	; 0x1200
     58e:	f103 0310 	add.w	r3, r3, #16
     592:	461a      	mov	r2, r3
     594:	f507 5310 	add.w	r3, r7, #9216	; 0x2400
     598:	f103 0314 	add.w	r3, r3, #20
     59c:	6819      	ldr	r1, [r3, #0]
     59e:	f507 5310 	add.w	r3, r7, #9216	; 0x2400
     5a2:	f103 0314 	add.w	r3, r3, #20
     5a6:	6818      	ldr	r0, [r3, #0]
     5a8:	ed9f 1bd1 	vldr	d1, [pc, #836]	; 8f0 <g_CryptoTaHandle_GenModle+0x410>
     5ac:	ed9f 0bd2 	vldr	d0, [pc, #840]	; 8f8 <g_CryptoTaHandle_GenModle+0x418>
     5b0:	f000 fae4 	bl	b7c <normrnd>
/home/wangzh/software/OP-TEE/fingerprint/ta/my_test_handle.c:307
     5b4:	f507 5290 	add.w	r2, r7, #4608	; 0x1200
     5b8:	f102 0210 	add.w	r2, r2, #16
     5bc:	f507 5390 	add.w	r3, r7, #4608	; 0x1200
     5c0:	f103 0310 	add.w	r3, r3, #16
     5c4:	4611      	mov	r1, r2
     5c6:	4618      	mov	r0, r3
     5c8:	f00a f8dc 	bl	a784 <GS>
/home/wangzh/software/OP-TEE/fingerprint/ta/my_test_handle.c:308
     5cc:	f107 0310 	add.w	r3, r7, #16
     5d0:	f1a3 0310 	sub.w	r3, r3, #16
     5d4:	681b      	ldr	r3, [r3, #0]
     5d6:	f103 0308 	add.w	r3, r3, #8
     5da:	681b      	ldr	r3, [r3, #0]
     5dc:	f507 5290 	add.w	r2, r7, #4608	; 0x1200
     5e0:	f102 0210 	add.w	r2, r2, #16
     5e4:	4611      	mov	r1, r2
     5e6:	4618      	mov	r0, r3
     5e8:	f000 fba0 	bl	d2c <MatrixCopy>
     5ec:	e01d      	b.n	62a <g_CryptoTaHandle_GenModle+0x14a>
/home/wangzh/software/OP-TEE/fingerprint/ta/my_test_handle.c:309
     5ee:	f107 0310 	add.w	r3, r7, #16
     5f2:	f1a3 0310 	sub.w	r3, r3, #16
     5f6:	681b      	ldr	r3, [r3, #0]
     5f8:	f103 0310 	add.w	r3, r3, #16
     5fc:	681b      	ldr	r3, [r3, #0]
     5fe:	2b01      	cmp	r3, #1
     600:	d110      	bne.n	624 <g_CryptoTaHandle_GenModle+0x144>
/home/wangzh/software/OP-TEE/fingerprint/ta/my_test_handle.c:310
     602:	f107 0310 	add.w	r3, r7, #16
     606:	f1a3 0310 	sub.w	r3, r3, #16
     60a:	681b      	ldr	r3, [r3, #0]
     60c:	f103 0308 	add.w	r3, r3, #8
     610:	681a      	ldr	r2, [r3, #0]
     612:	f507 5390 	add.w	r3, r7, #4608	; 0x1200
     616:	f103 0310 	add.w	r3, r3, #16
     61a:	4611      	mov	r1, r2
     61c:	4618      	mov	r0, r3
     61e:	f000 fb85 	bl	d2c <MatrixCopy>
     622:	e002      	b.n	62a <g_CryptoTaHandle_GenModle+0x14a>
/home/wangzh/software/OP-TEE/fingerprint/ta/my_test_handle.c:312
     624:	f04f 33ff 	mov.w	r3, #4294967295	; 0xffffffff
     628:	e25d      	b.n	ae6 <g_CryptoTaHandle_GenModle+0x606>
/home/wangzh/software/OP-TEE/fingerprint/ta/my_test_handle.c:323
     62a:	f04f 0300 	mov.w	r3, #0
     62e:	f507 5211 	add.w	r2, r7, #9280	; 0x2440
     632:	f102 020c 	add.w	r2, r2, #12
     636:	6013      	str	r3, [r2, #0]
     638:	e0b1      	b.n	79e <g_CryptoTaHandle_GenModle+0x2be>
/home/wangzh/software/OP-TEE/fingerprint/ta/my_test_handle.c:324
     63a:	f04f 0300 	mov.w	r3, #0
     63e:	f507 5211 	add.w	r2, r7, #9280	; 0x2440
     642:	f102 0208 	add.w	r2, r2, #8
     646:	6013      	str	r3, [r2, #0]
     648:	e095      	b.n	776 <g_CryptoTaHandle_GenModle+0x296>
/home/wangzh/software/OP-TEE/fingerprint/ta/my_test_handle.c:325
     64a:	f04f 0300 	mov.w	r3, #0
     64e:	f04f 0400 	mov.w	r4, #0
     652:	f507 5211 	add.w	r2, r7, #9280	; 0x2440
     656:	e9c2 3400 	strd	r3, r4, [r2]
/home/wangzh/software/OP-TEE/fingerprint/ta/my_test_handle.c:326
     65a:	f04f 0300 	mov.w	r3, #0
     65e:	f507 5210 	add.w	r2, r7, #9216	; 0x2400
     662:	f102 023c 	add.w	r2, r2, #60	; 0x3c
     666:	6013      	str	r3, [r2, #0]
     668:	e04d      	b.n	706 <g_CryptoTaHandle_GenModle+0x226>
/home/wangzh/software/OP-TEE/fingerprint/ta/my_test_handle.c:327 (discriminator 3)
     66a:	f507 5190 	add.w	r1, r7, #4608	; 0x1200
     66e:	f101 0110 	add.w	r1, r1, #16
     672:	f507 5310 	add.w	r3, r7, #9216	; 0x2400
     676:	f103 033c 	add.w	r3, r3, #60	; 0x3c
     67a:	681a      	ldr	r2, [r3, #0]
     67c:	4613      	mov	r3, r2
     67e:	ea4f 0343 	mov.w	r3, r3, lsl #1
     682:	4413      	add	r3, r2
     684:	ea4f 03c3 	mov.w	r3, r3, lsl #3
     688:	f507 5211 	add.w	r2, r7, #9280	; 0x2440
     68c:	f102 020c 	add.w	r2, r2, #12
     690:	6812      	ldr	r2, [r2, #0]
     692:	4413      	add	r3, r2
     694:	ea4f 03c3 	mov.w	r3, r3, lsl #3
     698:	440b      	add	r3, r1
     69a:	ed93 6b00 	vldr	d6, [r3]
     69e:	f507 5310 	add.w	r3, r7, #9216	; 0x2400
     6a2:	f103 033c 	add.w	r3, r3, #60	; 0x3c
     6a6:	681a      	ldr	r2, [r3, #0]
     6a8:	4613      	mov	r3, r2
     6aa:	ea4f 0343 	mov.w	r3, r3, lsl #1
     6ae:	4413      	add	r3, r2
     6b0:	ea4f 1383 	mov.w	r3, r3, lsl #6
     6b4:	461a      	mov	r2, r3
     6b6:	f507 5310 	add.w	r3, r7, #9216	; 0x2400
     6ba:	f103 0318 	add.w	r3, r3, #24
     6be:	681b      	ldr	r3, [r3, #0]
     6c0:	441a      	add	r2, r3
     6c2:	f507 5311 	add.w	r3, r7, #9280	; 0x2440
     6c6:	f103 0308 	add.w	r3, r3, #8
     6ca:	681b      	ldr	r3, [r3, #0]
     6cc:	ea4f 03c3 	mov.w	r3, r3, lsl #3
     6d0:	4413      	add	r3, r2
     6d2:	ed93 7b00 	vldr	d7, [r3]
     6d6:	ee26 7b07 	vmul.f64	d7, d6, d7
     6da:	f507 5311 	add.w	r3, r7, #9280	; 0x2440
     6de:	ed93 6b00 	vldr	d6, [r3]
     6e2:	ee36 7b07 	vadd.f64	d7, d6, d7
     6e6:	f507 5311 	add.w	r3, r7, #9280	; 0x2440
     6ea:	ed83 7b00 	vstr	d7, [r3]
/home/wangzh/software/OP-TEE/fingerprint/ta/my_test_handle.c:326 (discriminator 3)
     6ee:	f507 5310 	add.w	r3, r7, #9216	; 0x2400
     6f2:	f103 033c 	add.w	r3, r3, #60	; 0x3c
     6f6:	681b      	ldr	r3, [r3, #0]
     6f8:	f103 0301 	add.w	r3, r3, #1
     6fc:	f507 5210 	add.w	r2, r7, #9216	; 0x2400
     700:	f102 023c 	add.w	r2, r2, #60	; 0x3c
     704:	6013      	str	r3, [r2, #0]
/home/wangzh/software/OP-TEE/fingerprint/ta/my_test_handle.c:326 (discriminator 1)
     706:	f507 5310 	add.w	r3, r7, #9216	; 0x2400
     70a:	f103 033c 	add.w	r3, r3, #60	; 0x3c
     70e:	681b      	ldr	r3, [r3, #0]
     710:	2b18      	cmp	r3, #24
     712:	d1aa      	bne.n	66a <g_CryptoTaHandle_GenModle+0x18a>
/home/wangzh/software/OP-TEE/fingerprint/ta/my_test_handle.c:329 (discriminator 2)
     714:	f107 0110 	add.w	r1, r7, #16
     718:	f507 5311 	add.w	r3, r7, #9280	; 0x2440
     71c:	f103 030c 	add.w	r3, r3, #12
     720:	681a      	ldr	r2, [r3, #0]
     722:	4613      	mov	r3, r2
     724:	ea4f 0343 	mov.w	r3, r3, lsl #1
     728:	4413      	add	r3, r2
     72a:	ea4f 03c3 	mov.w	r3, r3, lsl #3
     72e:	f507 5211 	add.w	r2, r7, #9280	; 0x2440
     732:	f102 0208 	add.w	r2, r2, #8
     736:	6812      	ldr	r2, [r2, #0]
     738:	4413      	add	r3, r2
     73a:	ea4f 03c3 	mov.w	r3, r3, lsl #3
     73e:	eb01 0203 	add.w	r2, r1, r3
     742:	f507 5311 	add.w	r3, r7, #9280	; 0x2440
     746:	e9d3 3400 	ldrd	r3, r4, [r3]
     74a:	e9c2 3400 	strd	r3, r4, [r2]
/home/wangzh/software/OP-TEE/fingerprint/ta/my_test_handle.c:330 (discriminator 2)
     74e:	f04f 0300 	mov.w	r3, #0
     752:	f04f 0400 	mov.w	r4, #0
     756:	f507 5211 	add.w	r2, r7, #9280	; 0x2440
     75a:	e9c2 3400 	strd	r3, r4, [r2]
/home/wangzh/software/OP-TEE/fingerprint/ta/my_test_handle.c:324 (discriminator 2)
     75e:	f507 5311 	add.w	r3, r7, #9280	; 0x2440
     762:	f103 0308 	add.w	r3, r3, #8
     766:	681b      	ldr	r3, [r3, #0]
     768:	f103 0301 	add.w	r3, r3, #1
     76c:	f507 5211 	add.w	r2, r7, #9280	; 0x2440
     770:	f102 0208 	add.w	r2, r2, #8
     774:	6013      	str	r3, [r2, #0]
/home/wangzh/software/OP-TEE/fingerprint/ta/my_test_handle.c:324 (discriminator 1)
     776:	f507 5311 	add.w	r3, r7, #9280	; 0x2440
     77a:	f103 0308 	add.w	r3, r3, #8
     77e:	681b      	ldr	r3, [r3, #0]
     780:	2b18      	cmp	r3, #24
     782:	f47f af62 	bne.w	64a <g_CryptoTaHandle_GenModle+0x16a>
/home/wangzh/software/OP-TEE/fingerprint/ta/my_test_handle.c:323 (discriminator 2)
     786:	f507 5311 	add.w	r3, r7, #9280	; 0x2440
     78a:	f103 030c 	add.w	r3, r3, #12
     78e:	681b      	ldr	r3, [r3, #0]
     790:	f103 0301 	add.w	r3, r3, #1
     794:	f507 5211 	add.w	r2, r7, #9280	; 0x2440
     798:	f102 020c 	add.w	r2, r2, #12
     79c:	6013      	str	r3, [r2, #0]
/home/wangzh/software/OP-TEE/fingerprint/ta/my_test_handle.c:323 (discriminator 1)
     79e:	f507 5311 	add.w	r3, r7, #9280	; 0x2440
     7a2:	f103 030c 	add.w	r3, r3, #12
     7a6:	681b      	ldr	r3, [r3, #0]
     7a8:	2b18      	cmp	r3, #24
     7aa:	f47f af46 	bne.w	63a <g_CryptoTaHandle_GenModle+0x15a>
/home/wangzh/software/OP-TEE/fingerprint/ta/my_test_handle.c:341
     7ae:	f04f 0300 	mov.w	r3, #0
     7b2:	f507 5210 	add.w	r2, r7, #9216	; 0x2400
     7b6:	f102 0238 	add.w	r2, r2, #56	; 0x38
     7ba:	6013      	str	r3, [r2, #0]
     7bc:	e06e      	b.n	89c <g_CryptoTaHandle_GenModle+0x3bc>
/home/wangzh/software/OP-TEE/fingerprint/ta/my_test_handle.c:342
     7be:	f04f 0300 	mov.w	r3, #0
     7c2:	f507 5210 	add.w	r2, r7, #9216	; 0x2400
     7c6:	f102 0234 	add.w	r2, r2, #52	; 0x34
     7ca:	6013      	str	r3, [r2, #0]
     7cc:	e053      	b.n	876 <g_CryptoTaHandle_GenModle+0x396>
/home/wangzh/software/OP-TEE/fingerprint/ta/my_test_handle.c:343 (discriminator 3)
     7ce:	f107 0310 	add.w	r3, r7, #16
     7d2:	f1a3 0304 	sub.w	r3, r3, #4
     7d6:	f04f 0104 	mov.w	r1, #4
     7da:	4618      	mov	r0, r3
     7dc:	f003 fb0c 	bl	3df8 <TEE_GenerateRandom>
/home/wangzh/software/OP-TEE/fingerprint/ta/my_test_handle.c:344 (discriminator 3)
     7e0:	f507 5310 	add.w	r3, r7, #9216	; 0x2400
     7e4:	f103 0338 	add.w	r3, r3, #56	; 0x38
     7e8:	681b      	ldr	r3, [r3, #0]
     7ea:	f103 020c 	add.w	r2, r3, #12
     7ee:	f507 5310 	add.w	r3, r7, #9216	; 0x2400
     7f2:	f103 0338 	add.w	r3, r3, #56	; 0x38
     7f6:	681b      	ldr	r3, [r3, #0]
     7f8:	f103 010c 	add.w	r1, r3, #12
     7fc:	f107 0010 	add.w	r0, r7, #16
     800:	460b      	mov	r3, r1
     802:	ea4f 0343 	mov.w	r3, r3, lsl #1
     806:	440b      	add	r3, r1
     808:	ea4f 03c3 	mov.w	r3, r3, lsl #3
     80c:	f507 5110 	add.w	r1, r7, #9216	; 0x2400
     810:	f101 0134 	add.w	r1, r1, #52	; 0x34
     814:	6809      	ldr	r1, [r1, #0]
     816:	440b      	add	r3, r1
     818:	ea4f 03c3 	mov.w	r3, r3, lsl #3
     81c:	4403      	add	r3, r0
     81e:	ed93 6b00 	vldr	d6, [r3]
     822:	f107 0310 	add.w	r3, r7, #16
     826:	f1a3 0304 	sub.w	r3, r3, #4
     82a:	681b      	ldr	r3, [r3, #0]
     82c:	ee07 3a90 	vmov	s15, r3
     830:	eeb8 7be7 	vcvt.f64.s32	d7, s15
     834:	ee36 7b07 	vadd.f64	d7, d6, d7
     838:	f107 0110 	add.w	r1, r7, #16
     83c:	4613      	mov	r3, r2
     83e:	ea4f 0343 	mov.w	r3, r3, lsl #1
     842:	4413      	add	r3, r2
     844:	ea4f 03c3 	mov.w	r3, r3, lsl #3
     848:	f507 5210 	add.w	r2, r7, #9216	; 0x2400
     84c:	f102 0234 	add.w	r2, r2, #52	; 0x34
     850:	6812      	ldr	r2, [r2, #0]
     852:	4413      	add	r3, r2
     854:	ea4f 03c3 	mov.w	r3, r3, lsl #3
     858:	440b      	add	r3, r1
     85a:	ed83 7b00 	vstr	d7, [r3]
/home/wangzh/software/OP-TEE/fingerprint/ta/my_test_handle.c:342 (discriminator 3)
     85e:	f507 5310 	add.w	r3, r7, #9216	; 0x2400
     862:	f103 0334 	add.w	r3, r3, #52	; 0x34
     866:	681b      	ldr	r3, [r3, #0]
     868:	f103 0301 	add.w	r3, r3, #1
     86c:	f507 5210 	add.w	r2, r7, #9216	; 0x2400
     870:	f102 0234 	add.w	r2, r2, #52	; 0x34
     874:	6013      	str	r3, [r2, #0]
/home/wangzh/software/OP-TEE/fingerprint/ta/my_test_handle.c:342 (discriminator 1)
     876:	f507 5310 	add.w	r3, r7, #9216	; 0x2400
     87a:	f103 0334 	add.w	r3, r3, #52	; 0x34
     87e:	681b      	ldr	r3, [r3, #0]
     880:	2b18      	cmp	r3, #24
     882:	d1a4      	bne.n	7ce <g_CryptoTaHandle_GenModle+0x2ee>
/home/wangzh/software/OP-TEE/fingerprint/ta/my_test_handle.c:341 (discriminator 2)
     884:	f507 5310 	add.w	r3, r7, #9216	; 0x2400
     888:	f103 0338 	add.w	r3, r3, #56	; 0x38
     88c:	681b      	ldr	r3, [r3, #0]
     88e:	f103 0301 	add.w	r3, r3, #1
     892:	f507 5210 	add.w	r2, r7, #9216	; 0x2400
     896:	f102 0238 	add.w	r2, r2, #56	; 0x38
     89a:	6013      	str	r3, [r2, #0]
/home/wangzh/software/OP-TEE/fingerprint/ta/my_test_handle.c:341 (discriminator 1)
     89c:	f507 5310 	add.w	r3, r7, #9216	; 0x2400
     8a0:	f103 0338 	add.w	r3, r3, #56	; 0x38
     8a4:	681b      	ldr	r3, [r3, #0]
     8a6:	2b0c      	cmp	r3, #12
     8a8:	d189      	bne.n	7be <g_CryptoTaHandle_GenModle+0x2de>
/home/wangzh/software/OP-TEE/fingerprint/ta/my_test_handle.c:359
     8aa:	f04f 0300 	mov.w	r3, #0
     8ae:	f507 5210 	add.w	r2, r7, #9216	; 0x2400
     8b2:	f102 0230 	add.w	r2, r2, #48	; 0x30
     8b6:	6013      	str	r3, [r2, #0]
     8b8:	e0fe      	b.n	ab8 <g_CryptoTaHandle_GenModle+0x5d8>
/home/wangzh/software/OP-TEE/fingerprint/ta/my_test_handle.c:361
     8ba:	f04f 0300 	mov.w	r3, #0
     8be:	f507 5210 	add.w	r2, r7, #9216	; 0x2400
     8c2:	f102 022c 	add.w	r2, r2, #44	; 0x2c
     8c6:	6013      	str	r3, [r2, #0]
     8c8:	e0e2      	b.n	a90 <g_CryptoTaHandle_GenModle+0x5b0>
/home/wangzh/software/OP-TEE/fingerprint/ta/my_test_handle.c:362
     8ca:	f04f 0300 	mov.w	r3, #0
     8ce:	f04f 0400 	mov.w	r4, #0
     8d2:	f507 5210 	add.w	r2, r7, #9216	; 0x2400
     8d6:	f102 0220 	add.w	r2, r2, #32
     8da:	e9c2 3400 	strd	r3, r4, [r2]
/home/wangzh/software/OP-TEE/fingerprint/ta/my_test_handle.c:363
     8de:	f04f 0300 	mov.w	r3, #0
     8e2:	f507 5210 	add.w	r2, r7, #9216	; 0x2400
     8e6:	f102 021c 	add.w	r2, r2, #28
     8ea:	6013      	str	r3, [r2, #0]
     8ec:	e090      	b.n	a10 <g_CryptoTaHandle_GenModle+0x530>
     8ee:	bf00      	nop
     8f0:	aa3ad18d 	.word	0xaa3ad18d
     8f4:	3fca209a 	.word	0x3fca209a
	...
/home/wangzh/software/OP-TEE/fingerprint/ta/my_test_handle.c:364 (discriminator 3)
     900:	f507 5190 	add.w	r1, r7, #4608	; 0x1200
     904:	f101 0110 	add.w	r1, r1, #16
     908:	f507 5310 	add.w	r3, r7, #9216	; 0x2400
     90c:	f103 0330 	add.w	r3, r3, #48	; 0x30
     910:	681a      	ldr	r2, [r3, #0]
     912:	4613      	mov	r3, r2
     914:	ea4f 0343 	mov.w	r3, r3, lsl #1
     918:	4413      	add	r3, r2
     91a:	ea4f 03c3 	mov.w	r3, r3, lsl #3
     91e:	f507 5210 	add.w	r2, r7, #9216	; 0x2400
     922:	f102 021c 	add.w	r2, r2, #28
     926:	6812      	ldr	r2, [r2, #0]
     928:	4413      	add	r3, r2
     92a:	ea4f 03c3 	mov.w	r3, r3, lsl #3
     92e:	440b      	add	r3, r1
     930:	ed93 6b00 	vldr	d6, [r3]
     934:	f507 5310 	add.w	r3, r7, #9216	; 0x2400
     938:	f103 031c 	add.w	r3, r3, #28
     93c:	681b      	ldr	r3, [r3, #0]
     93e:	f103 020c 	add.w	r2, r3, #12
     942:	f107 0110 	add.w	r1, r7, #16
     946:	4613      	mov	r3, r2
     948:	ea4f 0343 	mov.w	r3, r3, lsl #1
     94c:	4413      	add	r3, r2
     94e:	ea4f 03c3 	mov.w	r3, r3, lsl #3
     952:	f507 5210 	add.w	r2, r7, #9216	; 0x2400
     956:	f102 022c 	add.w	r2, r2, #44	; 0x2c
     95a:	6812      	ldr	r2, [r2, #0]
     95c:	4413      	add	r3, r2
     95e:	ea4f 03c3 	mov.w	r3, r3, lsl #3
     962:	440b      	add	r3, r1
     964:	ed93 7b00 	vldr	d7, [r3]
     968:	ee26 6b07 	vmul.f64	d6, d6, d7
     96c:	f507 5310 	add.w	r3, r7, #9216	; 0x2400
     970:	f103 031c 	add.w	r3, r3, #28
     974:	681b      	ldr	r3, [r3, #0]
     976:	f103 000c 	add.w	r0, r3, #12
     97a:	f507 5190 	add.w	r1, r7, #4608	; 0x1200
     97e:	f101 0110 	add.w	r1, r1, #16
     982:	f507 5310 	add.w	r3, r7, #9216	; 0x2400
     986:	f103 0330 	add.w	r3, r3, #48	; 0x30
     98a:	681a      	ldr	r2, [r3, #0]
     98c:	4613      	mov	r3, r2
     98e:	ea4f 0343 	mov.w	r3, r3, lsl #1
     992:	4413      	add	r3, r2
     994:	ea4f 03c3 	mov.w	r3, r3, lsl #3
     998:	4403      	add	r3, r0
     99a:	ea4f 03c3 	mov.w	r3, r3, lsl #3
     99e:	440b      	add	r3, r1
     9a0:	ed93 5b00 	vldr	d5, [r3]
     9a4:	f107 0110 	add.w	r1, r7, #16
     9a8:	f507 5310 	add.w	r3, r7, #9216	; 0x2400
     9ac:	f103 031c 	add.w	r3, r3, #28
     9b0:	681a      	ldr	r2, [r3, #0]
     9b2:	4613      	mov	r3, r2
     9b4:	ea4f 0343 	mov.w	r3, r3, lsl #1
     9b8:	4413      	add	r3, r2
     9ba:	ea4f 03c3 	mov.w	r3, r3, lsl #3
     9be:	f507 5210 	add.w	r2, r7, #9216	; 0x2400
     9c2:	f102 022c 	add.w	r2, r2, #44	; 0x2c
     9c6:	6812      	ldr	r2, [r2, #0]
     9c8:	4413      	add	r3, r2
     9ca:	ea4f 03c3 	mov.w	r3, r3, lsl #3
     9ce:	440b      	add	r3, r1
     9d0:	ed93 7b00 	vldr	d7, [r3]
     9d4:	ee25 5b07 	vmul.f64	d5, d5, d7
     9d8:	f507 5310 	add.w	r3, r7, #9216	; 0x2400
     9dc:	f103 0320 	add.w	r3, r3, #32
     9e0:	ed93 7b00 	vldr	d7, [r3]
     9e4:	ee35 7b07 	vadd.f64	d7, d5, d7
     9e8:	ee36 7b07 	vadd.f64	d7, d6, d7
     9ec:	f507 5310 	add.w	r3, r7, #9216	; 0x2400
     9f0:	f103 0320 	add.w	r3, r3, #32
     9f4:	ed83 7b00 	vstr	d7, [r3]
/home/wangzh/software/OP-TEE/fingerprint/ta/my_test_handle.c:363 (discriminator 3)
     9f8:	f507 5310 	add.w	r3, r7, #9216	; 0x2400
     9fc:	f103 031c 	add.w	r3, r3, #28
     a00:	681b      	ldr	r3, [r3, #0]
     a02:	f103 0301 	add.w	r3, r3, #1
     a06:	f507 5210 	add.w	r2, r7, #9216	; 0x2400
     a0a:	f102 021c 	add.w	r2, r2, #28
     a0e:	6013      	str	r3, [r2, #0]
/home/wangzh/software/OP-TEE/fingerprint/ta/my_test_handle.c:363 (discriminator 1)
     a10:	f507 5310 	add.w	r3, r7, #9216	; 0x2400
     a14:	f103 031c 	add.w	r3, r3, #28
     a18:	681b      	ldr	r3, [r3, #0]
     a1a:	2b0c      	cmp	r3, #12
     a1c:	f47f af70 	bne.w	900 <g_CryptoTaHandle_GenModle+0x420>
/home/wangzh/software/OP-TEE/fingerprint/ta/my_test_handle.c:367 (discriminator 2)
     a20:	f507 5310 	add.w	r3, r7, #9216	; 0x2400
     a24:	f103 0330 	add.w	r3, r3, #48	; 0x30
     a28:	681a      	ldr	r2, [r3, #0]
     a2a:	4613      	mov	r3, r2
     a2c:	ea4f 0343 	mov.w	r3, r3, lsl #1
     a30:	4413      	add	r3, r2
     a32:	ea4f 1383 	mov.w	r3, r3, lsl #6
     a36:	461a      	mov	r2, r3
     a38:	f507 5310 	add.w	r3, r7, #9216	; 0x2400
     a3c:	f103 0318 	add.w	r3, r3, #24
     a40:	681b      	ldr	r3, [r3, #0]
     a42:	441a      	add	r2, r3
     a44:	f507 5310 	add.w	r3, r7, #9216	; 0x2400
     a48:	f103 032c 	add.w	r3, r3, #44	; 0x2c
     a4c:	681b      	ldr	r3, [r3, #0]
     a4e:	ea4f 03c3 	mov.w	r3, r3, lsl #3
     a52:	441a      	add	r2, r3
     a54:	f507 5310 	add.w	r3, r7, #9216	; 0x2400
     a58:	f103 0320 	add.w	r3, r3, #32
     a5c:	e9d3 3400 	ldrd	r3, r4, [r3]
     a60:	e9c2 3400 	strd	r3, r4, [r2]
/home/wangzh/software/OP-TEE/fingerprint/ta/my_test_handle.c:368 (discriminator 2)
     a64:	f04f 0300 	mov.w	r3, #0
     a68:	f04f 0400 	mov.w	r4, #0
     a6c:	f507 5210 	add.w	r2, r7, #9216	; 0x2400
     a70:	f102 0220 	add.w	r2, r2, #32
     a74:	e9c2 3400 	strd	r3, r4, [r2]
/home/wangzh/software/OP-TEE/fingerprint/ta/my_test_handle.c:361 (discriminator 2)
     a78:	f507 5310 	add.w	r3, r7, #9216	; 0x2400
     a7c:	f103 032c 	add.w	r3, r3, #44	; 0x2c
     a80:	681b      	ldr	r3, [r3, #0]
     a82:	f103 0301 	add.w	r3, r3, #1
     a86:	f507 5210 	add.w	r2, r7, #9216	; 0x2400
     a8a:	f102 022c 	add.w	r2, r2, #44	; 0x2c
     a8e:	6013      	str	r3, [r2, #0]
/home/wangzh/software/OP-TEE/fingerprint/ta/my_test_handle.c:361 (discriminator 1)
     a90:	f507 5310 	add.w	r3, r7, #9216	; 0x2400
     a94:	f103 032c 	add.w	r3, r3, #44	; 0x2c
     a98:	681b      	ldr	r3, [r3, #0]
     a9a:	2b18      	cmp	r3, #24
     a9c:	f47f af15 	bne.w	8ca <g_CryptoTaHandle_GenModle+0x3ea>
/home/wangzh/software/OP-TEE/fingerprint/ta/my_test_handle.c:359 (discriminator 2)
     aa0:	f507 5310 	add.w	r3, r7, #9216	; 0x2400
     aa4:	f103 0330 	add.w	r3, r3, #48	; 0x30
     aa8:	681b      	ldr	r3, [r3, #0]
     aaa:	f103 0301 	add.w	r3, r3, #1
     aae:	f507 5210 	add.w	r2, r7, #9216	; 0x2400
     ab2:	f102 0230 	add.w	r2, r2, #48	; 0x30
     ab6:	6013      	str	r3, [r2, #0]
/home/wangzh/software/OP-TEE/fingerprint/ta/my_test_handle.c:359 (discriminator 1)
     ab8:	f507 5310 	add.w	r3, r7, #9216	; 0x2400
     abc:	f103 0330 	add.w	r3, r3, #48	; 0x30
     ac0:	681b      	ldr	r3, [r3, #0]
     ac2:	2b18      	cmp	r3, #24
     ac4:	f47f aef9 	bne.w	8ba <g_CryptoTaHandle_GenModle+0x3da>
/home/wangzh/software/OP-TEE/fingerprint/ta/my_test_handle.c:372
     ac8:	4b0c      	ldr	r3, [pc, #48]	; (afc <g_CryptoTaHandle_GenModle+0x61c>)
     aca:	447b      	add	r3, pc
     acc:	9300      	str	r3, [sp, #0]
     ace:	f04f 0301 	mov.w	r3, #1
     ad2:	f04f 0203 	mov.w	r2, #3
     ad6:	f44f 71ba 	mov.w	r1, #372	; 0x174
     ada:	4809      	ldr	r0, [pc, #36]	; (b00 <g_CryptoTaHandle_GenModle+0x620>)
     adc:	4478      	add	r0, pc
     ade:	f007 fff7 	bl	8ad0 <trace_printf>
/home/wangzh/software/OP-TEE/fingerprint/ta/my_test_handle.c:375
     ae2:	f04f 0300 	mov.w	r3, #0
/home/wangzh/software/OP-TEE/fingerprint/ta/my_test_handle.c:382 (discriminator 1)
     ae6:	4618      	mov	r0, r3
     ae8:	f507 5711 	add.w	r7, r7, #9280	; 0x2440
     aec:	f107 0714 	add.w	r7, r7, #20
     af0:	46bd      	mov	sp, r7
     af2:	e9dd 4700 	ldrd	r4, r7, [sp]
     af6:	b002      	add	sp, #8
     af8:	f85d fb04 	ldr.w	pc, [sp], #4
     afc:	0000f00e 	.word	0x0000f00e
     b00:	0000f078 	.word	0x0000f078
     b04:	00000000 	.word	0x00000000

00000b08 <srand>:
srand():
/home/wangzh/software/OP-TEE/fingerprint/ta/normrnd.c:8
     b08:	f84d 7d04 	str.w	r7, [sp, #-4]!
     b0c:	b083      	sub	sp, #12
     b0e:	af00      	add	r7, sp, #0
     b10:	6078      	str	r0, [r7, #4]
/home/wangzh/software/OP-TEE/fingerprint/ta/normrnd.c:9
     b12:	4b06      	ldr	r3, [pc, #24]	; (b2c <srand+0x24>)
     b14:	447b      	add	r3, pc
     b16:	461a      	mov	r2, r3
     b18:	687b      	ldr	r3, [r7, #4]
     b1a:	6013      	str	r3, [r2, #0]
/home/wangzh/software/OP-TEE/fingerprint/ta/normrnd.c:10
     b1c:	bf00      	nop
     b1e:	f107 070c 	add.w	r7, r7, #12
     b22:	46bd      	mov	sp, r7
     b24:	f85d 7b04 	ldr.w	r7, [sp], #4
     b28:	4770      	bx	lr
     b2a:	bf00      	nop
     b2c:	00012584 	.word	0x00012584

00000b30 <rand>:
rand():
/home/wangzh/software/OP-TEE/fingerprint/ta/normrnd.c:11
     b30:	f84d 7d04 	str.w	r7, [sp, #-4]!
     b34:	af00      	add	r7, sp, #0
/home/wangzh/software/OP-TEE/fingerprint/ta/normrnd.c:12
     b36:	4b0e      	ldr	r3, [pc, #56]	; (b70 <rand+0x40>)
     b38:	447b      	add	r3, pc
     b3a:	681a      	ldr	r2, [r3, #0]
     b3c:	f244 33fd 	movw	r3, #17405	; 0x43fd
     b40:	f2c0 0303 	movt	r3, #3
     b44:	fb03 f202 	mul.w	r2, r3, r2
     b48:	f649 63c3 	movw	r3, #40643	; 0x9ec3
     b4c:	f2c0 0326 	movt	r3, #38	; 0x26
     b50:	4413      	add	r3, r2
     b52:	4a08      	ldr	r2, [pc, #32]	; (b74 <rand+0x44>)
     b54:	447a      	add	r2, pc
     b56:	6013      	str	r3, [r2, #0]
     b58:	4b07      	ldr	r3, [pc, #28]	; (b78 <rand+0x48>)
     b5a:	447b      	add	r3, pc
     b5c:	681b      	ldr	r3, [r3, #0]
     b5e:	ea4f 4313 	mov.w	r3, r3, lsr #16
     b62:	f3c3 030e 	ubfx	r3, r3, #0, #15
/home/wangzh/software/OP-TEE/fingerprint/ta/normrnd.c:13
     b66:	4618      	mov	r0, r3
     b68:	46bd      	mov	sp, r7
     b6a:	f85d 7b04 	ldr.w	r7, [sp], #4
     b6e:	4770      	bx	lr
     b70:	00012560 	.word	0x00012560
     b74:	00012544 	.word	0x00012544
     b78:	0001253e 	.word	0x0001253e

00000b7c <normrnd>:
normrnd():
/home/wangzh/software/OP-TEE/fingerprint/ta/normrnd.c:15
     b7c:	f84d 4d0c 	str.w	r4, [sp, #-12]!
     b80:	e9cd 7e01 	strd	r7, lr, [sp, #4]
     b84:	ed2d 8b02 	vpush	{d8}
     b88:	b093      	sub	sp, #76	; 0x4c
     b8a:	af00      	add	r7, sp, #0
     b8c:	ed87 0b06 	vstr	d0, [r7, #24]
     b90:	ed87 1b04 	vstr	d1, [r7, #16]
     b94:	60f8      	str	r0, [r7, #12]
     b96:	60b9      	str	r1, [r7, #8]
     b98:	607a      	str	r2, [r7, #4]
/home/wangzh/software/OP-TEE/fingerprint/ta/normrnd.c:21
     b9a:	f7ff ffc9 	bl	b30 <rand>
     b9e:	4603      	mov	r3, r0
     ba0:	4618      	mov	r0, r3
     ba2:	f7ff ffb1 	bl	b08 <srand>
/home/wangzh/software/OP-TEE/fingerprint/ta/normrnd.c:23
     ba6:	f04f 0300 	mov.w	r3, #0
     baa:	647b      	str	r3, [r7, #68]	; 0x44
     bac:	e0a7      	b.n	cfe <normrnd+0x182>
/home/wangzh/software/OP-TEE/fingerprint/ta/normrnd.c:25
     bae:	f04f 0300 	mov.w	r3, #0
     bb2:	643b      	str	r3, [r7, #64]	; 0x40
     bb4:	e09b      	b.n	cee <normrnd+0x172>
/home/wangzh/software/OP-TEE/fingerprint/ta/normrnd.c:29 (discriminator 1)
     bb6:	f7ff ffbb 	bl	b30 <rand>
     bba:	ee07 0a90 	vmov	s15, r0
     bbe:	eeb8 5be7 	vcvt.f64.s32	d5, s15
     bc2:	eddf 7a59 	vldr	s15, [pc, #356]	; d28 <normrnd+0x1ac>
     bc6:	eeb8 7be7 	vcvt.f64.s32	d7, s15
     bca:	ee85 6b07 	vdiv.f64	d6, d5, d7
     bce:	ed97 7b04 	vldr	d7, [r7, #16]
     bd2:	ee26 7b07 	vmul.f64	d7, d6, d7
     bd6:	eeb1 6b08 	vmov.f64	d6, #24	; 0x40c00000  6.0
     bda:	ee27 6b06 	vmul.f64	d6, d7, d6
     bde:	ed97 7b06 	vldr	d7, [r7, #24]
     be2:	ee36 6b07 	vadd.f64	d6, d6, d7
     be6:	ed97 7b04 	vldr	d7, [r7, #16]
     bea:	eeb0 5b08 	vmov.f64	d5, #8	; 0x40400000  3.0
     bee:	ee27 7b05 	vmul.f64	d7, d7, d5
     bf2:	ee36 7b47 	vsub.f64	d7, d6, d7
     bf6:	ed87 7b0e 	vstr	d7, [r7, #56]	; 0x38
/home/wangzh/software/OP-TEE/fingerprint/ta/normrnd.c:30 (discriminator 1)
     bfa:	ed9f 7b49 	vldr	d7, [pc, #292]	; d20 <normrnd+0x1a4>
     bfe:	ee37 7b07 	vadd.f64	d7, d7, d7
     c02:	eeb0 0b47 	vmov.f64	d0, d7
     c06:	f000 f951 	bl	eac <tee_sqrt>
     c0a:	eeb0 6b40 	vmov.f64	d6, d0
     c0e:	ed97 7b04 	vldr	d7, [r7, #16]
     c12:	ee26 7b07 	vmul.f64	d7, d6, d7
     c16:	eeb7 6b00 	vmov.f64	d6, #112	; 0x3f800000  1.0
     c1a:	ee86 8b07 	vdiv.f64	d8, d6, d7
     c1e:	ed97 6b06 	vldr	d6, [r7, #24]
     c22:	ed97 7b0e 	vldr	d7, [r7, #56]	; 0x38
     c26:	ee36 6b47 	vsub.f64	d6, d6, d7
     c2a:	ed97 5b0e 	vldr	d5, [r7, #56]	; 0x38
     c2e:	ed97 7b06 	vldr	d7, [r7, #24]
     c32:	ee35 7b47 	vsub.f64	d7, d5, d7
     c36:	ee26 6b07 	vmul.f64	d6, d6, d7
     c3a:	ed97 5b04 	vldr	d5, [r7, #16]
     c3e:	ed97 7b04 	vldr	d7, [r7, #16]
     c42:	ee25 7b07 	vmul.f64	d7, d5, d7
     c46:	ee37 7b07 	vadd.f64	d7, d7, d7
     c4a:	ee86 5b07 	vdiv.f64	d5, d6, d7
     c4e:	eeb0 0b45 	vmov.f64	d0, d5
     c52:	f000 f975 	bl	f40 <tee_exp>
     c56:	eeb0 7b40 	vmov.f64	d7, d0
     c5a:	ee28 7b07 	vmul.f64	d7, d8, d7
     c5e:	ed87 7b0c 	vstr	d7, [r7, #48]	; 0x30
/home/wangzh/software/OP-TEE/fingerprint/ta/normrnd.c:31 (discriminator 1)
     c62:	ed9f 7b2f 	vldr	d7, [pc, #188]	; d20 <normrnd+0x1a4>
     c66:	ee37 7b07 	vadd.f64	d7, d7, d7
     c6a:	eeb0 0b47 	vmov.f64	d0, d7
     c6e:	f000 f91d 	bl	eac <tee_sqrt>
     c72:	eeb0 6b40 	vmov.f64	d6, d0
     c76:	ed97 7b04 	vldr	d7, [r7, #16]
     c7a:	ee26 6b07 	vmul.f64	d6, d6, d7
     c7e:	eeb7 5b00 	vmov.f64	d5, #112	; 0x3f800000  1.0
     c82:	ee85 7b06 	vdiv.f64	d7, d5, d6
     c86:	ed87 7b0a 	vstr	d7, [r7, #40]	; 0x28
/home/wangzh/software/OP-TEE/fingerprint/ta/normrnd.c:32 (discriminator 1)
     c8a:	f7ff ff51 	bl	b30 <rand>
     c8e:	ee07 0a90 	vmov	s15, r0
     c92:	eeb8 5be7 	vcvt.f64.s32	d5, s15
     c96:	eddf 7a24 	vldr	s15, [pc, #144]	; d28 <normrnd+0x1ac>
     c9a:	eeb8 7be7 	vcvt.f64.s32	d7, s15
     c9e:	ee85 6b07 	vdiv.f64	d6, d5, d7
     ca2:	ed97 7b0a 	vldr	d7, [r7, #40]	; 0x28
     ca6:	ee26 7b07 	vmul.f64	d7, d6, d7
     caa:	ed87 7b08 	vstr	d7, [r7, #32]
/home/wangzh/software/OP-TEE/fingerprint/ta/normrnd.c:33 (discriminator 1)
     cae:	ed97 6b08 	vldr	d6, [r7, #32]
     cb2:	ed97 7b0c 	vldr	d7, [r7, #48]	; 0x30
     cb6:	eeb4 6bc7 	vcmpe.f64	d6, d7
     cba:	eef1 fa10 	vmrs	APSR_nzcv, fpscr
     cbe:	f73f af7a 	bgt.w	bb6 <normrnd+0x3a>
/home/wangzh/software/OP-TEE/fingerprint/ta/normrnd.c:36 (discriminator 2)
     cc2:	6c7a      	ldr	r2, [r7, #68]	; 0x44
     cc4:	4613      	mov	r3, r2
     cc6:	ea4f 0343 	mov.w	r3, r3, lsl #1
     cca:	4413      	add	r3, r2
     ccc:	ea4f 1383 	mov.w	r3, r3, lsl #6
     cd0:	461a      	mov	r2, r3
     cd2:	687b      	ldr	r3, [r7, #4]
     cd4:	441a      	add	r2, r3
     cd6:	6c3b      	ldr	r3, [r7, #64]	; 0x40
     cd8:	ea4f 03c3 	mov.w	r3, r3, lsl #3
     cdc:	441a      	add	r2, r3
     cde:	e9d7 340e 	ldrd	r3, r4, [r7, #56]	; 0x38
     ce2:	e9c2 3400 	strd	r3, r4, [r2]
/home/wangzh/software/OP-TEE/fingerprint/ta/normrnd.c:25 (discriminator 2)
     ce6:	6c3b      	ldr	r3, [r7, #64]	; 0x40
     ce8:	f103 0301 	add.w	r3, r3, #1
     cec:	643b      	str	r3, [r7, #64]	; 0x40
/home/wangzh/software/OP-TEE/fingerprint/ta/normrnd.c:25 (discriminator 1)
     cee:	6c3b      	ldr	r3, [r7, #64]	; 0x40
     cf0:	2b17      	cmp	r3, #23
     cf2:	f77f af60 	ble.w	bb6 <normrnd+0x3a>
/home/wangzh/software/OP-TEE/fingerprint/ta/normrnd.c:23 (discriminator 2)
     cf6:	6c7b      	ldr	r3, [r7, #68]	; 0x44
     cf8:	f103 0301 	add.w	r3, r3, #1
     cfc:	647b      	str	r3, [r7, #68]	; 0x44
/home/wangzh/software/OP-TEE/fingerprint/ta/normrnd.c:23 (discriminator 1)
     cfe:	6c7b      	ldr	r3, [r7, #68]	; 0x44
     d00:	2b17      	cmp	r3, #23
     d02:	f77f af54 	ble.w	bae <normrnd+0x32>
/home/wangzh/software/OP-TEE/fingerprint/ta/normrnd.c:42
     d06:	bf00      	nop
     d08:	f107 074c 	add.w	r7, r7, #76	; 0x4c
     d0c:	46bd      	mov	sp, r7
     d0e:	ecbd 8b02 	vpop	{d8}
     d12:	e9dd 4700 	ldrd	r4, r7, [sp]
     d16:	b002      	add	sp, #8
     d18:	f85d fb04 	ldr.w	pc, [sp], #4
     d1c:	f3af 8000 	nop.w
     d20:	4d12d84a 	.word	0x4d12d84a
     d24:	400921fb 	.word	0x400921fb
     d28:	00007fff 	.word	0x00007fff

00000d2c <MatrixCopy>:
MatrixCopy():
/home/wangzh/software/OP-TEE/fingerprint/ta/normrnd.c:43
     d2c:	e96d 4702 	strd	r4, r7, [sp, #-8]!
     d30:	b084      	sub	sp, #16
     d32:	af00      	add	r7, sp, #0
     d34:	6078      	str	r0, [r7, #4]
     d36:	6039      	str	r1, [r7, #0]
/home/wangzh/software/OP-TEE/fingerprint/ta/normrnd.c:44
     d38:	f04f 0300 	mov.w	r3, #0
     d3c:	60fb      	str	r3, [r7, #12]
     d3e:	e02f      	b.n	da0 <MatrixCopy+0x74>
/home/wangzh/software/OP-TEE/fingerprint/ta/normrnd.c:45
     d40:	f04f 0300 	mov.w	r3, #0
     d44:	60bb      	str	r3, [r7, #8]
     d46:	e024      	b.n	d92 <MatrixCopy+0x66>
/home/wangzh/software/OP-TEE/fingerprint/ta/normrnd.c:46 (discriminator 3)
     d48:	68fa      	ldr	r2, [r7, #12]
     d4a:	4613      	mov	r3, r2
     d4c:	ea4f 0343 	mov.w	r3, r3, lsl #1
     d50:	4413      	add	r3, r2
     d52:	ea4f 1383 	mov.w	r3, r3, lsl #6
     d56:	461a      	mov	r2, r3
     d58:	687b      	ldr	r3, [r7, #4]
     d5a:	eb03 0102 	add.w	r1, r3, r2
     d5e:	68fa      	ldr	r2, [r7, #12]
     d60:	4613      	mov	r3, r2
     d62:	ea4f 0343 	mov.w	r3, r3, lsl #1
     d66:	4413      	add	r3, r2
     d68:	ea4f 1383 	mov.w	r3, r3, lsl #6
     d6c:	461a      	mov	r2, r3
     d6e:	683b      	ldr	r3, [r7, #0]
     d70:	441a      	add	r2, r3
     d72:	68bb      	ldr	r3, [r7, #8]
     d74:	ea4f 03c3 	mov.w	r3, r3, lsl #3
     d78:	4413      	add	r3, r2
     d7a:	e9d3 3400 	ldrd	r3, r4, [r3]
     d7e:	68ba      	ldr	r2, [r7, #8]
     d80:	ea4f 02c2 	mov.w	r2, r2, lsl #3
     d84:	440a      	add	r2, r1
     d86:	e9c2 3400 	strd	r3, r4, [r2]
/home/wangzh/software/OP-TEE/fingerprint/ta/normrnd.c:45 (discriminator 3)
     d8a:	68bb      	ldr	r3, [r7, #8]
     d8c:	f103 0301 	add.w	r3, r3, #1
     d90:	60bb      	str	r3, [r7, #8]
/home/wangzh/software/OP-TEE/fingerprint/ta/normrnd.c:45 (discriminator 1)
     d92:	68bb      	ldr	r3, [r7, #8]
     d94:	2b18      	cmp	r3, #24
     d96:	d1d7      	bne.n	d48 <MatrixCopy+0x1c>
/home/wangzh/software/OP-TEE/fingerprint/ta/normrnd.c:44 (discriminator 2)
     d98:	68fb      	ldr	r3, [r7, #12]
     d9a:	f103 0301 	add.w	r3, r3, #1
     d9e:	60fb      	str	r3, [r7, #12]
/home/wangzh/software/OP-TEE/fingerprint/ta/normrnd.c:44 (discriminator 1)
     da0:	68fb      	ldr	r3, [r7, #12]
     da2:	2b18      	cmp	r3, #24
     da4:	d1cc      	bne.n	d40 <MatrixCopy+0x14>
/home/wangzh/software/OP-TEE/fingerprint/ta/normrnd.c:47
     da6:	bf00      	nop
     da8:	f107 0710 	add.w	r7, r7, #16
     dac:	46bd      	mov	sp, r7
     dae:	e9dd 4700 	ldrd	r4, r7, [sp]
     db2:	b002      	add	sp, #8
     db4:	4770      	bx	lr

00000db6 <transMatrix>:
transMatrix():
/home/wangzh/software/OP-TEE/fingerprint/ta/normrnd.c:48
     db6:	e96d 4702 	strd	r4, r7, [sp, #-8]!
     dba:	b086      	sub	sp, #24
     dbc:	af00      	add	r7, sp, #0
     dbe:	6078      	str	r0, [r7, #4]
/home/wangzh/software/OP-TEE/fingerprint/ta/normrnd.c:49
     dc0:	f04f 0300 	mov.w	r3, #0
     dc4:	617b      	str	r3, [r7, #20]
     dc6:	e052      	b.n	e6e <transMatrix+0xb8>
/home/wangzh/software/OP-TEE/fingerprint/ta/normrnd.c:50
     dc8:	697b      	ldr	r3, [r7, #20]
     dca:	613b      	str	r3, [r7, #16]
     dcc:	e048      	b.n	e60 <transMatrix+0xaa>
/home/wangzh/software/OP-TEE/fingerprint/ta/normrnd.c:51 (discriminator 3)
     dce:	697a      	ldr	r2, [r7, #20]
     dd0:	4613      	mov	r3, r2
     dd2:	ea4f 0343 	mov.w	r3, r3, lsl #1
     dd6:	4413      	add	r3, r2
     dd8:	ea4f 1383 	mov.w	r3, r3, lsl #6
     ddc:	461a      	mov	r2, r3
     dde:	687b      	ldr	r3, [r7, #4]
     de0:	441a      	add	r2, r3
     de2:	693b      	ldr	r3, [r7, #16]
     de4:	ea4f 03c3 	mov.w	r3, r3, lsl #3
     de8:	4413      	add	r3, r2
     dea:	e9d3 3400 	ldrd	r3, r4, [r3]
     dee:	e9c7 3402 	strd	r3, r4, [r7, #8]
/home/wangzh/software/OP-TEE/fingerprint/ta/normrnd.c:52 (discriminator 3)
     df2:	697a      	ldr	r2, [r7, #20]
     df4:	4613      	mov	r3, r2
     df6:	ea4f 0343 	mov.w	r3, r3, lsl #1
     dfa:	4413      	add	r3, r2
     dfc:	ea4f 1383 	mov.w	r3, r3, lsl #6
     e00:	461a      	mov	r2, r3
     e02:	687b      	ldr	r3, [r7, #4]
     e04:	eb03 0102 	add.w	r1, r3, r2
     e08:	693a      	ldr	r2, [r7, #16]
     e0a:	4613      	mov	r3, r2
     e0c:	ea4f 0343 	mov.w	r3, r3, lsl #1
     e10:	4413      	add	r3, r2
     e12:	ea4f 1383 	mov.w	r3, r3, lsl #6
     e16:	461a      	mov	r2, r3
     e18:	687b      	ldr	r3, [r7, #4]
     e1a:	441a      	add	r2, r3
     e1c:	697b      	ldr	r3, [r7, #20]
     e1e:	ea4f 03c3 	mov.w	r3, r3, lsl #3
     e22:	4413      	add	r3, r2
     e24:	e9d3 3400 	ldrd	r3, r4, [r3]
     e28:	693a      	ldr	r2, [r7, #16]
     e2a:	ea4f 02c2 	mov.w	r2, r2, lsl #3
     e2e:	440a      	add	r2, r1
     e30:	e9c2 3400 	strd	r3, r4, [r2]
/home/wangzh/software/OP-TEE/fingerprint/ta/normrnd.c:53 (discriminator 3)
     e34:	697a      	ldr	r2, [r7, #20]
     e36:	4613      	mov	r3, r2
     e38:	ea4f 0343 	mov.w	r3, r3, lsl #1
     e3c:	4413      	add	r3, r2
     e3e:	ea4f 1383 	mov.w	r3, r3, lsl #6
     e42:	461a      	mov	r2, r3
     e44:	687b      	ldr	r3, [r7, #4]
     e46:	441a      	add	r2, r3
     e48:	693b      	ldr	r3, [r7, #16]
     e4a:	ea4f 03c3 	mov.w	r3, r3, lsl #3
     e4e:	441a      	add	r2, r3
     e50:	e9d7 3402 	ldrd	r3, r4, [r7, #8]
     e54:	e9c2 3400 	strd	r3, r4, [r2]
/home/wangzh/software/OP-TEE/fingerprint/ta/normrnd.c:50 (discriminator 3)
     e58:	693b      	ldr	r3, [r7, #16]
     e5a:	f103 0301 	add.w	r3, r3, #1
     e5e:	613b      	str	r3, [r7, #16]
/home/wangzh/software/OP-TEE/fingerprint/ta/normrnd.c:50 (discriminator 1)
     e60:	693b      	ldr	r3, [r7, #16]
     e62:	2b18      	cmp	r3, #24
     e64:	d1b3      	bne.n	dce <transMatrix+0x18>
/home/wangzh/software/OP-TEE/fingerprint/ta/normrnd.c:49 (discriminator 2)
     e66:	697b      	ldr	r3, [r7, #20]
     e68:	f103 0301 	add.w	r3, r3, #1
     e6c:	617b      	str	r3, [r7, #20]
/home/wangzh/software/OP-TEE/fingerprint/ta/normrnd.c:49 (discriminator 1)
     e6e:	697b      	ldr	r3, [r7, #20]
     e70:	2b18      	cmp	r3, #24
     e72:	d1a9      	bne.n	dc8 <transMatrix+0x12>
/home/wangzh/software/OP-TEE/fingerprint/ta/normrnd.c:56
     e74:	bf00      	nop
     e76:	f107 0718 	add.w	r7, r7, #24
     e7a:	46bd      	mov	sp, r7
     e7c:	e9dd 4700 	ldrd	r4, r7, [sp]
     e80:	b002      	add	sp, #8
     e82:	4770      	bx	lr
     e84:	0000      	movs	r0, r0
	...

00000e88 <tee_abs>:
tee_abs():
/home/wangzh/software/OP-TEE/fingerprint/ta/tee_math.c:2
     e88:	f84d 7d04 	str.w	r7, [sp, #-4]!
     e8c:	b083      	sub	sp, #12
     e8e:	af00      	add	r7, sp, #0
     e90:	ed87 0b00 	vstr	d0, [r7]
/home/wangzh/software/OP-TEE/fingerprint/ta/tee_math.c:3
     e94:	ed97 7b00 	vldr	d7, [r7]
     e98:	eeb0 7bc7 	vabs.f64	d7, d7
/home/wangzh/software/OP-TEE/fingerprint/ta/tee_math.c:4
     e9c:	eeb0 0b47 	vmov.f64	d0, d7
     ea0:	f107 070c 	add.w	r7, r7, #12
     ea4:	46bd      	mov	sp, r7
     ea6:	f85d 7b04 	ldr.w	r7, [sp], #4
     eaa:	4770      	bx	lr

00000eac <tee_sqrt>:
tee_sqrt():
/home/wangzh/software/OP-TEE/fingerprint/ta/tee_math.c:5
     eac:	f84d 4d0c 	str.w	r4, [sp, #-12]!
     eb0:	e9cd 7e01 	strd	r7, lr, [sp, #4]
     eb4:	b089      	sub	sp, #36	; 0x24
     eb6:	af00      	add	r7, sp, #0
     eb8:	ed87 0b00 	vstr	d0, [r7]
/home/wangzh/software/OP-TEE/fingerprint/ta/tee_math.c:6
     ebc:	e9d7 3400 	ldrd	r3, r4, [r7]
     ec0:	e9c7 3406 	strd	r3, r4, [r7, #24]
/home/wangzh/software/OP-TEE/fingerprint/ta/tee_math.c:7
     ec4:	a41c      	add	r4, pc, #112	; (adr r4, f38 <tee_sqrt+0x8c>)
     ec6:	e9d4 3400 	ldrd	r3, r4, [r4]
     eca:	e9c7 3404 	strd	r3, r4, [r7, #16]
/home/wangzh/software/OP-TEE/fingerprint/ta/tee_math.c:11 (discriminator 1)
     ece:	e9d7 3406 	ldrd	r3, r4, [r7, #24]
     ed2:	e9c7 3402 	strd	r3, r4, [r7, #8]
/home/wangzh/software/OP-TEE/fingerprint/ta/tee_math.c:12 (discriminator 1)
     ed6:	ed97 5b00 	vldr	d5, [r7]
     eda:	ed97 7b06 	vldr	d7, [r7, #24]
     ede:	ee85 6b07 	vdiv.f64	d6, d5, d7
     ee2:	ed97 7b06 	vldr	d7, [r7, #24]
     ee6:	ee36 6b07 	vadd.f64	d6, d6, d7
     eea:	eeb0 5b00 	vmov.f64	d5, #0	; 0x40000000  2.0
     eee:	ee86 7b05 	vdiv.f64	d7, d6, d5
     ef2:	ed87 7b06 	vstr	d7, [r7, #24]
/home/wangzh/software/OP-TEE/fingerprint/ta/tee_math.c:13 (discriminator 1)
     ef6:	ed97 6b06 	vldr	d6, [r7, #24]
     efa:	ed97 7b02 	vldr	d7, [r7, #8]
     efe:	ee36 7b47 	vsub.f64	d7, d6, d7
     f02:	eeb0 0b47 	vmov.f64	d0, d7
     f06:	f7ff ffbf 	bl	e88 <tee_abs>
     f0a:	eeb0 6b40 	vmov.f64	d6, d0
     f0e:	ed97 7b04 	vldr	d7, [r7, #16]
     f12:	eeb4 6bc7 	vcmpe.f64	d6, d7
     f16:	eef1 fa10 	vmrs	APSR_nzcv, fpscr
     f1a:	dcd8      	bgt.n	ece <tee_sqrt+0x22>
/home/wangzh/software/OP-TEE/fingerprint/ta/tee_math.c:14
     f1c:	e9d7 3406 	ldrd	r3, r4, [r7, #24]
     f20:	ec44 3b17 	vmov	d7, r3, r4
/home/wangzh/software/OP-TEE/fingerprint/ta/tee_math.c:16
     f24:	eeb0 0b47 	vmov.f64	d0, d7
     f28:	f107 0724 	add.w	r7, r7, #36	; 0x24
     f2c:	46bd      	mov	sp, r7
     f2e:	e9dd 4700 	ldrd	r4, r7, [sp]
     f32:	b002      	add	sp, #8
     f34:	f85d fb04 	ldr.w	pc, [sp], #4
     f38:	9abcaf48 	.word	0x9abcaf48
     f3c:	3e7ad7f2 	.word	0x3e7ad7f2

00000f40 <tee_exp>:
tee_exp():
/home/wangzh/software/OP-TEE/fingerprint/ta/tee_math.c:18
     f40:	e96d 4702 	strd	r4, r7, [sp, #-8]!
     f44:	b094      	sub	sp, #80	; 0x50
     f46:	af00      	add	r7, sp, #0
     f48:	ed87 0b00 	vstr	d0, [r7]
/home/wangzh/software/OP-TEE/fingerprint/ta/tee_math.c:20
     f4c:	ed97 7b00 	vldr	d7, [r7]
     f50:	eefd 7bc7 	vcvt.s32.f64	s15, d7
     f54:	ee17 3a90 	vmov	r3, s15
     f58:	61fb      	str	r3, [r7, #28]
/home/wangzh/software/OP-TEE/fingerprint/ta/tee_math.c:25
     f5a:	69fb      	ldr	r3, [r7, #28]
     f5c:	ee07 3a90 	vmov	s15, r3
     f60:	eeb8 7be7 	vcvt.f64.s32	d7, s15
     f64:	ed97 6b00 	vldr	d6, [r7]
     f68:	ee36 7b47 	vsub.f64	d7, d6, d7
     f6c:	ed87 7b04 	vstr	d7, [r7, #16]
/home/wangzh/software/OP-TEE/fingerprint/ta/tee_math.c:26
     f70:	f04f 0301 	mov.w	r3, #1
     f74:	647b      	str	r3, [r7, #68]	; 0x44
/home/wangzh/software/OP-TEE/fingerprint/ta/tee_math.c:27
     f76:	f04f 0300 	mov.w	r3, #0
     f7a:	f04f 0400 	mov.w	r4, #0
     f7e:	f6c3 74f0 	movt	r4, #16368	; 0x3ff0
     f82:	e9c7 340c 	strd	r3, r4, [r7, #48]	; 0x30
/home/wangzh/software/OP-TEE/fingerprint/ta/tee_math.c:28
     f86:	f04f 0300 	mov.w	r3, #0
     f8a:	f04f 0400 	mov.w	r4, #0
     f8e:	f6c3 74f0 	movt	r4, #16368	; 0x3ff0
     f92:	e9c7 340a 	strd	r3, r4, [r7, #40]	; 0x28
/home/wangzh/software/OP-TEE/fingerprint/ta/tee_math.c:29
     f96:	f04f 030a 	mov.w	r3, #10
     f9a:	60fb      	str	r3, [r7, #12]
/home/wangzh/software/OP-TEE/fingerprint/ta/tee_math.c:30
     f9c:	f04f 0300 	mov.w	r3, #0
     fa0:	f04f 0400 	mov.w	r4, #0
     fa4:	f6c3 74f0 	movt	r4, #16368	; 0x3ff0
     fa8:	e9c7 3408 	strd	r3, r4, [r7, #32]
/home/wangzh/software/OP-TEE/fingerprint/ta/tee_math.c:31
     fac:	f04f 0300 	mov.w	r3, #0
     fb0:	f04f 0400 	mov.w	r4, #0
     fb4:	f6c3 74f0 	movt	r4, #16368	; 0x3ff0
     fb8:	e9c7 340e 	strd	r3, r4, [r7, #56]	; 0x38
/home/wangzh/software/OP-TEE/fingerprint/ta/tee_math.c:34
     fbc:	69fb      	ldr	r3, [r7, #28]
     fbe:	2b00      	cmp	r3, #0
     fc0:	da20      	bge.n	1004 <tee_exp+0xc4>
/home/wangzh/software/OP-TEE/fingerprint/ta/tee_math.c:35
     fc2:	69fb      	ldr	r3, [r7, #28]
     fc4:	f1c3 0300 	rsb	r3, r3, #0
     fc8:	61fb      	str	r3, [r7, #28]
/home/wangzh/software/OP-TEE/fingerprint/ta/tee_math.c:36
     fca:	f04f 0300 	mov.w	r3, #0
     fce:	64bb      	str	r3, [r7, #72]	; 0x48
     fd0:	e00b      	b.n	fea <tee_exp+0xaa>
/home/wangzh/software/OP-TEE/fingerprint/ta/tee_math.c:36 (discriminator 3)
     fd2:	ed97 7b0a 	vldr	d7, [r7, #40]	; 0x28
     fd6:	ed9f 6b32 	vldr	d6, [pc, #200]	; 10a0 <tee_exp+0x160>
     fda:	ee27 7b06 	vmul.f64	d7, d7, d6
     fde:	ed87 7b0a 	vstr	d7, [r7, #40]	; 0x28
     fe2:	6cbb      	ldr	r3, [r7, #72]	; 0x48
     fe4:	f103 0301 	add.w	r3, r3, #1
     fe8:	64bb      	str	r3, [r7, #72]	; 0x48
/home/wangzh/software/OP-TEE/fingerprint/ta/tee_math.c:36 (discriminator 1)
     fea:	6cba      	ldr	r2, [r7, #72]	; 0x48
     fec:	69fb      	ldr	r3, [r7, #28]
     fee:	429a      	cmp	r2, r3
     ff0:	dbef      	blt.n	fd2 <tee_exp+0x92>
/home/wangzh/software/OP-TEE/fingerprint/ta/tee_math.c:37
     ff2:	ed97 5b0c 	vldr	d5, [r7, #48]	; 0x30
     ff6:	ed97 6b0a 	vldr	d6, [r7, #40]	; 0x28
     ffa:	ee85 7b06 	vdiv.f64	d7, d5, d6
     ffe:	ed87 7b0c 	vstr	d7, [r7, #48]	; 0x30
    1002:	e013      	b.n	102c <tee_exp+0xec>
/home/wangzh/software/OP-TEE/fingerprint/ta/tee_math.c:39
    1004:	f04f 0300 	mov.w	r3, #0
    1008:	64bb      	str	r3, [r7, #72]	; 0x48
    100a:	e00b      	b.n	1024 <tee_exp+0xe4>
/home/wangzh/software/OP-TEE/fingerprint/ta/tee_math.c:39 (discriminator 3)
    100c:	ed97 7b0c 	vldr	d7, [r7, #48]	; 0x30
    1010:	ed9f 6b23 	vldr	d6, [pc, #140]	; 10a0 <tee_exp+0x160>
    1014:	ee27 7b06 	vmul.f64	d7, d7, d6
    1018:	ed87 7b0c 	vstr	d7, [r7, #48]	; 0x30
    101c:	6cbb      	ldr	r3, [r7, #72]	; 0x48
    101e:	f103 0301 	add.w	r3, r3, #1
    1022:	64bb      	str	r3, [r7, #72]	; 0x48
/home/wangzh/software/OP-TEE/fingerprint/ta/tee_math.c:39 (discriminator 1)
    1024:	6cba      	ldr	r2, [r7, #72]	; 0x48
    1026:	69fb      	ldr	r3, [r7, #28]
    1028:	429a      	cmp	r2, r3
    102a:	dbef      	blt.n	100c <tee_exp+0xcc>
/home/wangzh/software/OP-TEE/fingerprint/ta/tee_math.c:42
    102c:	f04f 0301 	mov.w	r3, #1
    1030:	64fb      	str	r3, [r7, #76]	; 0x4c
    1032:	e01f      	b.n	1074 <tee_exp+0x134>
/home/wangzh/software/OP-TEE/fingerprint/ta/tee_math.c:43 (discriminator 3)
    1034:	6c7b      	ldr	r3, [r7, #68]	; 0x44
    1036:	6cfa      	ldr	r2, [r7, #76]	; 0x4c
    1038:	fb02 f303 	mul.w	r3, r2, r3
    103c:	647b      	str	r3, [r7, #68]	; 0x44
/home/wangzh/software/OP-TEE/fingerprint/ta/tee_math.c:44 (discriminator 3)
    103e:	ed97 6b08 	vldr	d6, [r7, #32]
    1042:	ed97 7b04 	vldr	d7, [r7, #16]
    1046:	ee26 7b07 	vmul.f64	d7, d6, d7
    104a:	ed87 7b08 	vstr	d7, [r7, #32]
/home/wangzh/software/OP-TEE/fingerprint/ta/tee_math.c:45 (discriminator 3)
    104e:	6c7b      	ldr	r3, [r7, #68]	; 0x44
    1050:	ee07 3a90 	vmov	s15, r3
    1054:	eeb8 6be7 	vcvt.f64.s32	d6, s15
    1058:	ed97 5b08 	vldr	d5, [r7, #32]
    105c:	ee85 7b06 	vdiv.f64	d7, d5, d6
    1060:	ed97 6b0e 	vldr	d6, [r7, #56]	; 0x38
    1064:	ee36 7b07 	vadd.f64	d7, d6, d7
    1068:	ed87 7b0e 	vstr	d7, [r7, #56]	; 0x38
/home/wangzh/software/OP-TEE/fingerprint/ta/tee_math.c:42 (discriminator 3)
    106c:	6cfb      	ldr	r3, [r7, #76]	; 0x4c
    106e:	f103 0301 	add.w	r3, r3, #1
    1072:	64fb      	str	r3, [r7, #76]	; 0x4c
/home/wangzh/software/OP-TEE/fingerprint/ta/tee_math.c:42 (discriminator 1)
    1074:	6cfa      	ldr	r2, [r7, #76]	; 0x4c
    1076:	68fb      	ldr	r3, [r7, #12]
    1078:	429a      	cmp	r2, r3
    107a:	dbdb      	blt.n	1034 <tee_exp+0xf4>
/home/wangzh/software/OP-TEE/fingerprint/ta/tee_math.c:47
    107c:	ed97 6b0e 	vldr	d6, [r7, #56]	; 0x38
    1080:	ed97 7b0c 	vldr	d7, [r7, #48]	; 0x30
    1084:	ee26 7b07 	vmul.f64	d7, d6, d7
/home/wangzh/software/OP-TEE/fingerprint/ta/tee_math.c:48
    1088:	eeb0 0b47 	vmov.f64	d0, d7
    108c:	f107 0750 	add.w	r7, r7, #80	; 0x50
    1090:	46bd      	mov	sp, r7
    1092:	e9dd 4700 	ldrd	r4, r7, [sp]
    1096:	b002      	add	sp, #8
    1098:	4770      	bx	lr
    109a:	bf00      	nop
    109c:	f3af 8000 	nop.w
    10a0:	1be2b496 	.word	0x1be2b496
    10a4:	4005bf0a 	.word	0x4005bf0a

000010a8 <TA_CreateEntryPoint>:
TA_CreateEntryPoint():
/home/wangzh/software/OP-TEE/fingerprint/ta/my_test.c:42
    10a8:	e96d 7e02 	strd	r7, lr, [sp, #-8]!
    10ac:	b082      	sub	sp, #8
    10ae:	af02      	add	r7, sp, #8
/home/wangzh/software/OP-TEE/fingerprint/ta/my_test.c:43
    10b0:	4b08      	ldr	r3, [pc, #32]	; (10d4 <TA_CreateEntryPoint+0x2c>)
    10b2:	447b      	add	r3, pc
    10b4:	9300      	str	r3, [sp, #0]
    10b6:	f04f 0301 	mov.w	r3, #1
    10ba:	f04f 0203 	mov.w	r2, #3
    10be:	f04f 012b 	mov.w	r1, #43	; 0x2b
    10c2:	4805      	ldr	r0, [pc, #20]	; (10d8 <TA_CreateEntryPoint+0x30>)
    10c4:	4478      	add	r0, pc
    10c6:	f007 fd03 	bl	8ad0 <trace_printf>
/home/wangzh/software/OP-TEE/fingerprint/ta/my_test.c:44
    10ca:	f04f 0300 	mov.w	r3, #0
/home/wangzh/software/OP-TEE/fingerprint/ta/my_test.c:45
    10ce:	4618      	mov	r0, r3
    10d0:	46bd      	mov	sp, r7
    10d2:	bd80      	pop	{r7, pc}
    10d4:	0000e84e 	.word	0x0000e84e
    10d8:	0000e898 	.word	0x0000e898

000010dc <TA_DestroyEntryPoint>:
TA_DestroyEntryPoint():
/home/wangzh/software/OP-TEE/fingerprint/ta/my_test.c:52
    10dc:	e96d 7e02 	strd	r7, lr, [sp, #-8]!
    10e0:	b082      	sub	sp, #8
    10e2:	af02      	add	r7, sp, #8
/home/wangzh/software/OP-TEE/fingerprint/ta/my_test.c:53
    10e4:	4b07      	ldr	r3, [pc, #28]	; (1104 <TA_DestroyEntryPoint+0x28>)
    10e6:	447b      	add	r3, pc
    10e8:	9300      	str	r3, [sp, #0]
    10ea:	f04f 0301 	mov.w	r3, #1
    10ee:	f04f 0203 	mov.w	r2, #3
    10f2:	f04f 0135 	mov.w	r1, #53	; 0x35
    10f6:	4804      	ldr	r0, [pc, #16]	; (1108 <TA_DestroyEntryPoint+0x2c>)
    10f8:	4478      	add	r0, pc
    10fa:	f007 fce9 	bl	8ad0 <trace_printf>
/home/wangzh/software/OP-TEE/fingerprint/ta/my_test.c:54
    10fe:	bf00      	nop
    1100:	46bd      	mov	sp, r7
    1102:	bd80      	pop	{r7, pc}
    1104:	0000e81a 	.word	0x0000e81a
    1108:	0000e878 	.word	0x0000e878

0000110c <TA_OpenSessionEntryPoint>:
TA_OpenSessionEntryPoint():
/home/wangzh/software/OP-TEE/fingerprint/ta/my_test.c:65
    110c:	e96d 7e02 	strd	r7, lr, [sp, #-8]!
    1110:	b088      	sub	sp, #32
    1112:	af02      	add	r7, sp, #8
    1114:	60f8      	str	r0, [r7, #12]
    1116:	60b9      	str	r1, [r7, #8]
    1118:	607a      	str	r2, [r7, #4]
/home/wangzh/software/OP-TEE/fingerprint/ta/my_test.c:66
    111a:	f04f 0300 	mov.w	r3, #0
    111e:	617b      	str	r3, [r7, #20]
/home/wangzh/software/OP-TEE/fingerprint/ta/my_test.c:70
    1120:	68fa      	ldr	r2, [r7, #12]
    1122:	697b      	ldr	r3, [r7, #20]
    1124:	429a      	cmp	r2, r3
    1126:	d004      	beq.n	1132 <TA_OpenSessionEntryPoint+0x26>
/home/wangzh/software/OP-TEE/fingerprint/ta/my_test.c:71
    1128:	f04f 0306 	mov.w	r3, #6
    112c:	f6cf 73ff 	movt	r3, #65535	; 0xffff
    1130:	e00e      	b.n	1150 <TA_OpenSessionEntryPoint+0x44>
/home/wangzh/software/OP-TEE/fingerprint/ta/my_test.c:81
    1132:	4b0a      	ldr	r3, [pc, #40]	; (115c <TA_OpenSessionEntryPoint+0x50>)
    1134:	447b      	add	r3, pc
    1136:	9300      	str	r3, [sp, #0]
    1138:	f04f 0301 	mov.w	r3, #1
    113c:	f04f 0203 	mov.w	r2, #3
    1140:	f04f 0151 	mov.w	r1, #81	; 0x51
    1144:	4806      	ldr	r0, [pc, #24]	; (1160 <TA_OpenSessionEntryPoint+0x54>)
    1146:	4478      	add	r0, pc
    1148:	f007 fcc2 	bl	8ad0 <trace_printf>
/home/wangzh/software/OP-TEE/fingerprint/ta/my_test.c:84
    114c:	f04f 0300 	mov.w	r3, #0
/home/wangzh/software/OP-TEE/fingerprint/ta/my_test.c:85
    1150:	4618      	mov	r0, r3
    1152:	f107 0718 	add.w	r7, r7, #24
    1156:	46bd      	mov	sp, r7
    1158:	bd80      	pop	{r7, pc}
    115a:	bf00      	nop
    115c:	0000e7dc 	.word	0x0000e7dc
    1160:	0000e842 	.word	0x0000e842

00001164 <TA_CloseSessionEntryPoint>:
TA_CloseSessionEntryPoint():
/home/wangzh/software/OP-TEE/fingerprint/ta/my_test.c:92
    1164:	e96d 7e02 	strd	r7, lr, [sp, #-8]!
    1168:	b084      	sub	sp, #16
    116a:	af02      	add	r7, sp, #8
    116c:	6078      	str	r0, [r7, #4]
/home/wangzh/software/OP-TEE/fingerprint/ta/my_test.c:94
    116e:	4b09      	ldr	r3, [pc, #36]	; (1194 <TA_CloseSessionEntryPoint+0x30>)
    1170:	447b      	add	r3, pc
    1172:	9300      	str	r3, [sp, #0]
    1174:	f04f 0301 	mov.w	r3, #1
    1178:	f04f 0203 	mov.w	r2, #3
    117c:	f04f 015e 	mov.w	r1, #94	; 0x5e
    1180:	4805      	ldr	r0, [pc, #20]	; (1198 <TA_CloseSessionEntryPoint+0x34>)
    1182:	4478      	add	r0, pc
    1184:	f007 fca4 	bl	8ad0 <trace_printf>
/home/wangzh/software/OP-TEE/fingerprint/ta/my_test.c:95
    1188:	bf00      	nop
    118a:	f107 0708 	add.w	r7, r7, #8
    118e:	46bd      	mov	sp, r7
    1190:	bd80      	pop	{r7, pc}
    1192:	bf00      	nop
    1194:	0000e7b0 	.word	0x0000e7b0
    1198:	0000e822 	.word	0x0000e822

0000119c <inc_value>:
inc_value():
/home/wangzh/software/OP-TEE/fingerprint/ta/my_test.c:99
    119c:	e96d 7e02 	strd	r7, lr, [sp, #-8]!
    11a0:	b086      	sub	sp, #24
    11a2:	af02      	add	r7, sp, #8
    11a4:	6078      	str	r0, [r7, #4]
    11a6:	6039      	str	r1, [r7, #0]
/home/wangzh/software/OP-TEE/fingerprint/ta/my_test.c:100
    11a8:	f04f 0303 	mov.w	r3, #3
    11ac:	60fb      	str	r3, [r7, #12]
/home/wangzh/software/OP-TEE/fingerprint/ta/my_test.c:105
    11ae:	4b21      	ldr	r3, [pc, #132]	; (1234 <inc_value+0x98>)
    11b0:	447b      	add	r3, pc
    11b2:	9300      	str	r3, [sp, #0]
    11b4:	f04f 0301 	mov.w	r3, #1
    11b8:	f04f 0203 	mov.w	r2, #3
    11bc:	f04f 0169 	mov.w	r1, #105	; 0x69
    11c0:	481d      	ldr	r0, [pc, #116]	; (1238 <inc_value+0x9c>)
    11c2:	4478      	add	r0, pc
    11c4:	f007 fc84 	bl	8ad0 <trace_printf>
/home/wangzh/software/OP-TEE/fingerprint/ta/my_test.c:106
    11c8:	687a      	ldr	r2, [r7, #4]
    11ca:	68fb      	ldr	r3, [r7, #12]
    11cc:	429a      	cmp	r2, r3
    11ce:	d004      	beq.n	11da <inc_value+0x3e>
/home/wangzh/software/OP-TEE/fingerprint/ta/my_test.c:107
    11d0:	f04f 0306 	mov.w	r3, #6
    11d4:	f6cf 73ff 	movt	r3, #65535	; 0xffff
    11d8:	e027      	b.n	122a <inc_value+0x8e>
/home/wangzh/software/OP-TEE/fingerprint/ta/my_test.c:109
    11da:	683b      	ldr	r3, [r7, #0]
    11dc:	681b      	ldr	r3, [r3, #0]
    11de:	9301      	str	r3, [sp, #4]
    11e0:	4b16      	ldr	r3, [pc, #88]	; (123c <inc_value+0xa0>)
    11e2:	447b      	add	r3, pc
    11e4:	9300      	str	r3, [sp, #0]
    11e6:	f04f 0301 	mov.w	r3, #1
    11ea:	f04f 0203 	mov.w	r2, #3
    11ee:	f04f 016d 	mov.w	r1, #109	; 0x6d
    11f2:	4813      	ldr	r0, [pc, #76]	; (1240 <inc_value+0xa4>)
    11f4:	4478      	add	r0, pc
    11f6:	f007 fc6b 	bl	8ad0 <trace_printf>
/home/wangzh/software/OP-TEE/fingerprint/ta/my_test.c:110
    11fa:	683b      	ldr	r3, [r7, #0]
    11fc:	681b      	ldr	r3, [r3, #0]
    11fe:	f103 0201 	add.w	r2, r3, #1
    1202:	683b      	ldr	r3, [r7, #0]
    1204:	601a      	str	r2, [r3, #0]
/home/wangzh/software/OP-TEE/fingerprint/ta/my_test.c:111
    1206:	683b      	ldr	r3, [r7, #0]
    1208:	681b      	ldr	r3, [r3, #0]
    120a:	9301      	str	r3, [sp, #4]
    120c:	4b0d      	ldr	r3, [pc, #52]	; (1244 <inc_value+0xa8>)
    120e:	447b      	add	r3, pc
    1210:	9300      	str	r3, [sp, #0]
    1212:	f04f 0301 	mov.w	r3, #1
    1216:	f04f 0203 	mov.w	r2, #3
    121a:	f04f 016f 	mov.w	r1, #111	; 0x6f
    121e:	480a      	ldr	r0, [pc, #40]	; (1248 <inc_value+0xac>)
    1220:	4478      	add	r0, pc
    1222:	f007 fc55 	bl	8ad0 <trace_printf>
/home/wangzh/software/OP-TEE/fingerprint/ta/my_test.c:112
    1226:	f04f 0300 	mov.w	r3, #0
/home/wangzh/software/OP-TEE/fingerprint/ta/my_test.c:113
    122a:	4618      	mov	r0, r3
    122c:	f107 0710 	add.w	r7, r7, #16
    1230:	46bd      	mov	sp, r7
    1232:	bd80      	pop	{r7, pc}
    1234:	0000e750 	.word	0x0000e750
    1238:	0000e7fe 	.word	0x0000e7fe
    123c:	0000e74a 	.word	0x0000e74a
    1240:	0000e7cc 	.word	0x0000e7cc
    1244:	0000e736 	.word	0x0000e736
    1248:	0000e7a0 	.word	0x0000e7a0

0000124c <TA_InvokeCommandEntryPoint>:
TA_InvokeCommandEntryPoint():
/home/wangzh/software/OP-TEE/fingerprint/ta/my_test.c:123
    124c:	e96d 7e02 	strd	r7, lr, [sp, #-8]!
    1250:	b086      	sub	sp, #24
    1252:	af00      	add	r7, sp, #0
    1254:	60f8      	str	r0, [r7, #12]
    1256:	60b9      	str	r1, [r7, #8]
    1258:	607a      	str	r2, [r7, #4]
    125a:	603b      	str	r3, [r7, #0]
/home/wangzh/software/OP-TEE/fingerprint/ta/my_test.c:124
    125c:	f04f 0300 	mov.w	r3, #0
    1260:	617b      	str	r3, [r7, #20]
/home/wangzh/software/OP-TEE/fingerprint/ta/my_test.c:125
    1262:	f04f 33ff 	mov.w	r3, #4294967295	; 0xffffffff
    1266:	613b      	str	r3, [r7, #16]
/home/wangzh/software/OP-TEE/fingerprint/ta/my_test.c:128
    1268:	68bb      	ldr	r3, [r7, #8]
    126a:	2b05      	cmp	r3, #5
    126c:	d834      	bhi.n	12d8 <TA_InvokeCommandEntryPoint+0x8c>
    126e:	a202      	add	r2, pc, #8	; (adr r2, 1278 <TA_InvokeCommandEntryPoint+0x2c>)
    1270:	f852 3023 	ldr.w	r3, [r2, r3, lsl #2]
    1274:	441a      	add	r2, r3
    1276:	4710      	bx	r2
    1278:	00000019 	.word	0x00000019
    127c:	00000025 	.word	0x00000025
    1280:	00000031 	.word	0x00000031
    1284:	0000003d 	.word	0x0000003d
    1288:	00000049 	.word	0x00000049
    128c:	00000055 	.word	0x00000055
/home/wangzh/software/OP-TEE/fingerprint/ta/my_test.c:131
    1290:	6839      	ldr	r1, [r7, #0]
    1292:	6878      	ldr	r0, [r7, #4]
    1294:	f7ff ff82 	bl	119c <inc_value>
    1298:	4603      	mov	r3, r0
    129a:	e030      	b.n	12fe <TA_InvokeCommandEntryPoint+0xb2>
/home/wangzh/software/OP-TEE/fingerprint/ta/my_test.c:134
    129c:	6839      	ldr	r1, [r7, #0]
    129e:	6878      	ldr	r0, [r7, #4]
    12a0:	f7ff f816 	bl	2d0 <g_CryptoTaHandle_Sha>
    12a4:	6138      	str	r0, [r7, #16]
/home/wangzh/software/OP-TEE/fingerprint/ta/my_test.c:135
    12a6:	e01c      	b.n	12e2 <TA_InvokeCommandEntryPoint+0x96>
/home/wangzh/software/OP-TEE/fingerprint/ta/my_test.c:138
    12a8:	6839      	ldr	r1, [r7, #0]
    12aa:	6878      	ldr	r0, [r7, #4]
    12ac:	f7ff f85c 	bl	368 <g_CryptoTaHandle_Random>
    12b0:	6138      	str	r0, [r7, #16]
/home/wangzh/software/OP-TEE/fingerprint/ta/my_test.c:139
    12b2:	e016      	b.n	12e2 <TA_InvokeCommandEntryPoint+0x96>
/home/wangzh/software/OP-TEE/fingerprint/ta/my_test.c:141
    12b4:	6839      	ldr	r1, [r7, #0]
    12b6:	6878      	ldr	r0, [r7, #4]
    12b8:	f7ff f888 	bl	3cc <g_CryptoTaHandle_Rand>
    12bc:	6138      	str	r0, [r7, #16]
/home/wangzh/software/OP-TEE/fingerprint/ta/my_test.c:142
    12be:	e010      	b.n	12e2 <TA_InvokeCommandEntryPoint+0x96>
/home/wangzh/software/OP-TEE/fingerprint/ta/my_test.c:144
    12c0:	6839      	ldr	r1, [r7, #0]
    12c2:	6878      	ldr	r0, [r7, #4]
    12c4:	f7ff f8f8 	bl	4b8 <g_CryptoTaHandle_GS>
    12c8:	6138      	str	r0, [r7, #16]
/home/wangzh/software/OP-TEE/fingerprint/ta/my_test.c:145
    12ca:	e00a      	b.n	12e2 <TA_InvokeCommandEntryPoint+0x96>
/home/wangzh/software/OP-TEE/fingerprint/ta/my_test.c:147
    12cc:	6839      	ldr	r1, [r7, #0]
    12ce:	6878      	ldr	r0, [r7, #4]
    12d0:	f7ff f906 	bl	4e0 <g_CryptoTaHandle_GenModle>
    12d4:	6138      	str	r0, [r7, #16]
/home/wangzh/software/OP-TEE/fingerprint/ta/my_test.c:148
    12d6:	e004      	b.n	12e2 <TA_InvokeCommandEntryPoint+0x96>
/home/wangzh/software/OP-TEE/fingerprint/ta/my_test.c:150
    12d8:	f04f 0306 	mov.w	r3, #6
    12dc:	f6cf 73ff 	movt	r3, #65535	; 0xffff
    12e0:	e00d      	b.n	12fe <TA_InvokeCommandEntryPoint+0xb2>
/home/wangzh/software/OP-TEE/fingerprint/ta/my_test.c:152
    12e2:	693b      	ldr	r3, [r7, #16]
    12e4:	f1b3 3fff 	cmp.w	r3, #4294967295	; 0xffffffff
    12e8:	d105      	bne.n	12f6 <TA_InvokeCommandEntryPoint+0xaa>
/home/wangzh/software/OP-TEE/fingerprint/ta/my_test.c:154
    12ea:	f04f 0306 	mov.w	r3, #6
    12ee:	f6cf 73ff 	movt	r3, #65535	; 0xffff
    12f2:	617b      	str	r3, [r7, #20]
    12f4:	e002      	b.n	12fc <TA_InvokeCommandEntryPoint+0xb0>
/home/wangzh/software/OP-TEE/fingerprint/ta/my_test.c:158
    12f6:	f04f 0300 	mov.w	r3, #0
    12fa:	617b      	str	r3, [r7, #20]
/home/wangzh/software/OP-TEE/fingerprint/ta/my_test.c:161
    12fc:	697b      	ldr	r3, [r7, #20]
/home/wangzh/software/OP-TEE/fingerprint/ta/my_test.c:162
    12fe:	4618      	mov	r0, r3
    1300:	f107 0718 	add.w	r7, r7, #24
    1304:	46bd      	mov	sp, r7
    1306:	bd80      	pop	{r7, pc}

00001308 <TEE_AllocateOperation>:
TEE_AllocateOperation():
/home/wangzh/software/OP-TEE/optee_os/lib/libutee/tee_api_operations.c:59
    1308:	e96d 7e02 	strd	r7, lr, [sp, #-8]!
    130c:	b090      	sub	sp, #64	; 0x40
    130e:	af02      	add	r7, sp, #8
    1310:	60f8      	str	r0, [r7, #12]
    1312:	60b9      	str	r1, [r7, #8]
    1314:	607a      	str	r2, [r7, #4]
    1316:	603b      	str	r3, [r7, #0]
/home/wangzh/software/OP-TEE/optee_os/lib/libutee/tee_api_operations.c:61
    1318:	f04f 0300 	mov.w	r3, #0
    131c:	61bb      	str	r3, [r7, #24]
/home/wangzh/software/OP-TEE/optee_os/lib/libutee/tee_api_operations.c:62
    131e:	f04f 0300 	mov.w	r3, #0
    1322:	633b      	str	r3, [r7, #48]	; 0x30
/home/wangzh/software/OP-TEE/optee_os/lib/libutee/tee_api_operations.c:63
    1324:	f04f 0301 	mov.w	r3, #1
    1328:	62fb      	str	r3, [r7, #44]	; 0x2c
/home/wangzh/software/OP-TEE/optee_os/lib/libutee/tee_api_operations.c:65
    132a:	f04f 0300 	mov.w	r3, #0
    132e:	f887 3027 	strb.w	r3, [r7, #39]	; 0x27
/home/wangzh/software/OP-TEE/optee_os/lib/libutee/tee_api_operations.c:66
    1332:	f04f 0300 	mov.w	r3, #0
    1336:	f887 3026 	strb.w	r3, [r7, #38]	; 0x26
/home/wangzh/software/OP-TEE/optee_os/lib/libutee/tee_api_operations.c:68
    133a:	68fb      	ldr	r3, [r7, #12]
    133c:	2b00      	cmp	r3, #0
    133e:	d103      	bne.n	1348 <TEE_AllocateOperation+0x40>
/home/wangzh/software/OP-TEE/optee_os/lib/libutee/tee_api_operations.c:69
    1340:	f04f 0000 	mov.w	r0, #0
    1344:	f009 fd9b 	bl	ae7e <TEE_Panic>
/home/wangzh/software/OP-TEE/optee_os/lib/libutee/tee_api_operations.c:71
    1348:	68ba      	ldr	r2, [r7, #8]
    134a:	f44f 6382 	mov.w	r3, #1040	; 0x410
    134e:	f2c1 0300 	movt	r3, #4096	; 0x1000
    1352:	429a      	cmp	r2, r3
    1354:	d102      	bne.n	135c <TEE_AllocateOperation+0x54>
/home/wangzh/software/OP-TEE/optee_os/lib/libutee/tee_api_operations.c:72
    1356:	f44f 2300 	mov.w	r3, #524288	; 0x80000
    135a:	633b      	str	r3, [r7, #48]	; 0x30
/home/wangzh/software/OP-TEE/optee_os/lib/libutee/tee_api_operations.c:75
    135c:	68bb      	ldr	r3, [r7, #8]
    135e:	f244 1231 	movw	r2, #16689	; 0x4131
    1362:	f2c7 0200 	movt	r2, #28672	; 0x7000
    1366:	4293      	cmp	r3, r2
    1368:	f000 8084 	beq.w	1474 <TEE_AllocateOperation+0x16c>
    136c:	f244 1231 	movw	r2, #16689	; 0x4131
    1370:	f2c7 0200 	movt	r2, #28672	; 0x7000
    1374:	4293      	cmp	r3, r2
    1376:	d82b      	bhi.n	13d0 <TEE_AllocateOperation+0xc8>
    1378:	f242 1231 	movw	r2, #8497	; 0x2131
    137c:	f2c7 0200 	movt	r2, #28672	; 0x7000
    1380:	4293      	cmp	r3, r2
    1382:	d051      	beq.n	1428 <TEE_AllocateOperation+0x120>
    1384:	f242 1231 	movw	r2, #8497	; 0x2131
    1388:	f2c7 0200 	movt	r2, #28672	; 0x7000
    138c:	4293      	cmp	r3, r2
    138e:	d80c      	bhi.n	13aa <TEE_AllocateOperation+0xa2>
    1390:	f241 0241 	movw	r2, #4161	; 0x1041
    1394:	f2c7 0200 	movt	r2, #28672	; 0x7000
    1398:	4293      	cmp	r3, r2
    139a:	d078      	beq.n	148e <TEE_AllocateOperation+0x186>
    139c:	f242 0241 	movw	r2, #8257	; 0x2041
    13a0:	f2c7 0200 	movt	r2, #28672	; 0x7000
    13a4:	4293      	cmp	r3, r2
    13a6:	d07a      	beq.n	149e <TEE_AllocateOperation+0x196>
/home/wangzh/software/OP-TEE/optee_os/lib/libutee/tee_api_operations.c:126
    13a8:	e0ac      	b.n	1504 <TEE_AllocateOperation+0x1fc>
/home/wangzh/software/OP-TEE/optee_os/lib/libutee/tee_api_operations.c:75
    13aa:	f243 1231 	movw	r2, #12593	; 0x3131
    13ae:	f2c7 0200 	movt	r2, #28672	; 0x7000
    13b2:	4293      	cmp	r3, r2
    13b4:	d055      	beq.n	1462 <TEE_AllocateOperation+0x15a>
    13b6:	f244 0241 	movw	r2, #16449	; 0x4041
    13ba:	f2c7 0200 	movt	r2, #28672	; 0x7000
    13be:	4293      	cmp	r3, r2
    13c0:	d07e      	beq.n	14c0 <TEE_AllocateOperation+0x1b8>
    13c2:	f243 0241 	movw	r2, #12353	; 0x3041
    13c6:	f2c7 0200 	movt	r2, #28672	; 0x7000
    13ca:	4293      	cmp	r3, r2
    13cc:	d06f      	beq.n	14ae <TEE_AllocateOperation+0x1a6>
/home/wangzh/software/OP-TEE/optee_os/lib/libutee/tee_api_operations.c:126
    13ce:	e099      	b.n	1504 <TEE_AllocateOperation+0x1fc>
/home/wangzh/software/OP-TEE/optee_os/lib/libutee/tee_api_operations.c:75
    13d0:	f242 0242 	movw	r2, #8258	; 0x2042
    13d4:	f2c8 0200 	movt	r2, #32768	; 0x8000
    13d8:	4293      	cmp	r3, r2
    13da:	d060      	beq.n	149e <TEE_AllocateOperation+0x196>
    13dc:	f242 0242 	movw	r2, #8258	; 0x2042
    13e0:	f2c8 0200 	movt	r2, #32768	; 0x8000
    13e4:	4293      	cmp	r3, r2
    13e6:	d80c      	bhi.n	1402 <TEE_AllocateOperation+0xfa>
    13e8:	f245 0241 	movw	r2, #20545	; 0x5041
    13ec:	f2c7 0200 	movt	r2, #28672	; 0x7000
    13f0:	4293      	cmp	r3, r2
    13f2:	d06e      	beq.n	14d2 <TEE_AllocateOperation+0x1ca>
    13f4:	f241 0242 	movw	r2, #4162	; 0x1042
    13f8:	f2c8 0200 	movt	r2, #32768	; 0x8000
    13fc:	4293      	cmp	r3, r2
    13fe:	d046      	beq.n	148e <TEE_AllocateOperation+0x186>
/home/wangzh/software/OP-TEE/optee_os/lib/libutee/tee_api_operations.c:126
    1400:	e080      	b.n	1504 <TEE_AllocateOperation+0x1fc>
/home/wangzh/software/OP-TEE/optee_os/lib/libutee/tee_api_operations.c:75
    1402:	f244 0242 	movw	r2, #16450	; 0x4042
    1406:	f2c8 0200 	movt	r2, #32768	; 0x8000
    140a:	4293      	cmp	r3, r2
    140c:	d058      	beq.n	14c0 <TEE_AllocateOperation+0x1b8>
    140e:	f245 0242 	movw	r2, #20546	; 0x5042
    1412:	f2c8 0200 	movt	r2, #32768	; 0x8000
    1416:	4293      	cmp	r3, r2
    1418:	d05b      	beq.n	14d2 <TEE_AllocateOperation+0x1ca>
    141a:	f243 0242 	movw	r2, #12354	; 0x3042
    141e:	f2c8 0200 	movt	r2, #32768	; 0x8000
    1422:	4293      	cmp	r3, r2
    1424:	d043      	beq.n	14ae <TEE_AllocateOperation+0x1a6>
/home/wangzh/software/OP-TEE/optee_os/lib/libutee/tee_api_operations.c:126
    1426:	e06d      	b.n	1504 <TEE_AllocateOperation+0x1fc>
/home/wangzh/software/OP-TEE/optee_os/lib/libutee/tee_api_operations.c:77
    1428:	683b      	ldr	r3, [r7, #0]
    142a:	f5b3 7f00 	cmp.w	r3, #512	; 0x200
    142e:	d205      	bcs.n	143c <TEE_AllocateOperation+0x134>
/home/wangzh/software/OP-TEE/optee_os/lib/libutee/tee_api_operations.c:78
    1430:	f04f 030a 	mov.w	r3, #10
    1434:	f6cf 73ff 	movt	r3, #65535	; 0xffff
    1438:	f000 bc01 	b.w	1c3e <TEE_AllocateOperation+0x936>
/home/wangzh/software/OP-TEE/optee_os/lib/libutee/tee_api_operations.c:79
    143c:	683b      	ldr	r3, [r7, #0]
    143e:	f5b3 6f80 	cmp.w	r3, #1024	; 0x400
    1442:	d904      	bls.n	144e <TEE_AllocateOperation+0x146>
/home/wangzh/software/OP-TEE/optee_os/lib/libutee/tee_api_operations.c:80
    1444:	f04f 030a 	mov.w	r3, #10
    1448:	f6cf 73ff 	movt	r3, #65535	; 0xffff
    144c:	e3f7      	b.n	1c3e <TEE_AllocateOperation+0x936>
/home/wangzh/software/OP-TEE/optee_os/lib/libutee/tee_api_operations.c:81
    144e:	683b      	ldr	r3, [r7, #0]
    1450:	f003 033f 	and.w	r3, r3, #63	; 0x3f
    1454:	2b00      	cmp	r3, #0
    1456:	d046      	beq.n	14e6 <TEE_AllocateOperation+0x1de>
/home/wangzh/software/OP-TEE/optee_os/lib/libutee/tee_api_operations.c:82
    1458:	f04f 030a 	mov.w	r3, #10
    145c:	f6cf 73ff 	movt	r3, #65535	; 0xffff
    1460:	e3ed      	b.n	1c3e <TEE_AllocateOperation+0x936>
/home/wangzh/software/OP-TEE/optee_os/lib/libutee/tee_api_operations.c:86
    1462:	683b      	ldr	r3, [r7, #0]
    1464:	f5b3 6f00 	cmp.w	r3, #2048	; 0x800
    1468:	d03f      	beq.n	14ea <TEE_AllocateOperation+0x1e2>
/home/wangzh/software/OP-TEE/optee_os/lib/libutee/tee_api_operations.c:87
    146a:	f04f 030a 	mov.w	r3, #10
    146e:	f6cf 73ff 	movt	r3, #65535	; 0xffff
    1472:	e3e4      	b.n	1c3e <TEE_AllocateOperation+0x936>
/home/wangzh/software/OP-TEE/optee_os/lib/libutee/tee_api_operations.c:91
    1474:	683b      	ldr	r3, [r7, #0]
    1476:	f5b3 6f00 	cmp.w	r3, #2048	; 0x800
    147a:	d038      	beq.n	14ee <TEE_AllocateOperation+0x1e6>
/home/wangzh/software/OP-TEE/optee_os/lib/libutee/tee_api_operations.c:91 (discriminator 1)
    147c:	683b      	ldr	r3, [r7, #0]
    147e:	f5b3 6f40 	cmp.w	r3, #3072	; 0xc00
    1482:	d034      	beq.n	14ee <TEE_AllocateOperation+0x1e6>
/home/wangzh/software/OP-TEE/optee_os/lib/libutee/tee_api_operations.c:92
    1484:	f04f 030a 	mov.w	r3, #10
    1488:	f6cf 73ff 	movt	r3, #65535	; 0xffff
    148c:	e3d7      	b.n	1c3e <TEE_AllocateOperation+0x936>
/home/wangzh/software/OP-TEE/optee_os/lib/libutee/tee_api_operations.c:97
    148e:	683b      	ldr	r3, [r7, #0]
    1490:	2bc0      	cmp	r3, #192	; 0xc0
    1492:	d02e      	beq.n	14f2 <TEE_AllocateOperation+0x1ea>
/home/wangzh/software/OP-TEE/optee_os/lib/libutee/tee_api_operations.c:98
    1494:	f04f 030a 	mov.w	r3, #10
    1498:	f6cf 73ff 	movt	r3, #65535	; 0xffff
    149c:	e3cf      	b.n	1c3e <TEE_AllocateOperation+0x936>
/home/wangzh/software/OP-TEE/optee_os/lib/libutee/tee_api_operations.c:103
    149e:	683b      	ldr	r3, [r7, #0]
    14a0:	2be0      	cmp	r3, #224	; 0xe0
    14a2:	d028      	beq.n	14f6 <TEE_AllocateOperation+0x1ee>
/home/wangzh/software/OP-TEE/optee_os/lib/libutee/tee_api_operations.c:104
    14a4:	f04f 030a 	mov.w	r3, #10
    14a8:	f6cf 73ff 	movt	r3, #65535	; 0xffff
    14ac:	e3c7      	b.n	1c3e <TEE_AllocateOperation+0x936>
/home/wangzh/software/OP-TEE/optee_os/lib/libutee/tee_api_operations.c:109
    14ae:	683b      	ldr	r3, [r7, #0]
    14b0:	f5b3 7f80 	cmp.w	r3, #256	; 0x100
    14b4:	d021      	beq.n	14fa <TEE_AllocateOperation+0x1f2>
/home/wangzh/software/OP-TEE/optee_os/lib/libutee/tee_api_operations.c:110
    14b6:	f04f 030a 	mov.w	r3, #10
    14ba:	f6cf 73ff 	movt	r3, #65535	; 0xffff
    14be:	e3be      	b.n	1c3e <TEE_AllocateOperation+0x936>
/home/wangzh/software/OP-TEE/optee_os/lib/libutee/tee_api_operations.c:115
    14c0:	683b      	ldr	r3, [r7, #0]
    14c2:	f5b3 7fc0 	cmp.w	r3, #384	; 0x180
    14c6:	d01a      	beq.n	14fe <TEE_AllocateOperation+0x1f6>
/home/wangzh/software/OP-TEE/optee_os/lib/libutee/tee_api_operations.c:116
    14c8:	f04f 030a 	mov.w	r3, #10
    14cc:	f6cf 73ff 	movt	r3, #65535	; 0xffff
    14d0:	e3b5      	b.n	1c3e <TEE_AllocateOperation+0x936>
/home/wangzh/software/OP-TEE/optee_os/lib/libutee/tee_api_operations.c:121
    14d2:	683b      	ldr	r3, [r7, #0]
    14d4:	f240 2209 	movw	r2, #521	; 0x209
    14d8:	4293      	cmp	r3, r2
    14da:	d012      	beq.n	1502 <TEE_AllocateOperation+0x1fa>
/home/wangzh/software/OP-TEE/optee_os/lib/libutee/tee_api_operations.c:122
    14dc:	f04f 030a 	mov.w	r3, #10
    14e0:	f6cf 73ff 	movt	r3, #65535	; 0xffff
    14e4:	e3ab      	b.n	1c3e <TEE_AllocateOperation+0x936>
/home/wangzh/software/OP-TEE/optee_os/lib/libutee/tee_api_operations.c:83
    14e6:	bf00      	nop
    14e8:	e00c      	b.n	1504 <TEE_AllocateOperation+0x1fc>
/home/wangzh/software/OP-TEE/optee_os/lib/libutee/tee_api_operations.c:88
    14ea:	bf00      	nop
    14ec:	e00a      	b.n	1504 <TEE_AllocateOperation+0x1fc>
/home/wangzh/software/OP-TEE/optee_os/lib/libutee/tee_api_operations.c:93
    14ee:	bf00      	nop
    14f0:	e008      	b.n	1504 <TEE_AllocateOperation+0x1fc>
/home/wangzh/software/OP-TEE/optee_os/lib/libutee/tee_api_operations.c:99
    14f2:	bf00      	nop
    14f4:	e006      	b.n	1504 <TEE_AllocateOperation+0x1fc>
/home/wangzh/software/OP-TEE/optee_os/lib/libutee/tee_api_operations.c:105
    14f6:	bf00      	nop
    14f8:	e004      	b.n	1504 <TEE_AllocateOperation+0x1fc>
/home/wangzh/software/OP-TEE/optee_os/lib/libutee/tee_api_operations.c:111
    14fa:	bf00      	nop
    14fc:	e002      	b.n	1504 <TEE_AllocateOperation+0x1fc>
/home/wangzh/software/OP-TEE/optee_os/lib/libutee/tee_api_operations.c:117
    14fe:	bf00      	nop
    1500:	e000      	b.n	1504 <TEE_AllocateOperation+0x1fc>
/home/wangzh/software/OP-TEE/optee_os/lib/libutee/tee_api_operations.c:123
    1502:	bf00      	nop
/home/wangzh/software/OP-TEE/optee_os/lib/libutee/tee_api_operations.c:130
    1504:	68bb      	ldr	r3, [r7, #8]
    1506:	f242 1231 	movw	r2, #8497	; 0x2131
    150a:	f2c7 0200 	movt	r2, #28672	; 0x7000
    150e:	4293      	cmp	r3, r2
    1510:	f000 822c 	beq.w	196c <TEE_AllocateOperation+0x664>
    1514:	f242 1231 	movw	r2, #8497	; 0x2131
    1518:	f2c7 0200 	movt	r2, #28672	; 0x7000
    151c:	4293      	cmp	r3, r2
    151e:	f200 80fe 	bhi.w	171e <TEE_AllocateOperation+0x416>
    1522:	f240 5211 	movw	r2, #1297	; 0x511
    1526:	f2c3 0200 	movt	r2, #12288	; 0x3000
    152a:	4293      	cmp	r3, r2
    152c:	d86d      	bhi.n	160a <TEE_AllocateOperation+0x302>
    152e:	f44f 62a2 	mov.w	r2, #1296	; 0x510
    1532:	f2c3 0200 	movt	r2, #12288	; 0x3000
    1536:	4293      	cmp	r3, r2
    1538:	f080 827d 	bcs.w	1a36 <TEE_AllocateOperation+0x72e>
    153c:	f44f 7204 	mov.w	r2, #528	; 0x210
    1540:	f2c1 0200 	movt	r2, #4096	; 0x1000
    1544:	4293      	cmp	r3, r2
    1546:	f000 81fe 	beq.w	1946 <TEE_AllocateOperation+0x63e>
    154a:	f44f 7204 	mov.w	r2, #528	; 0x210
    154e:	f2c1 0200 	movt	r2, #4096	; 0x1000
    1552:	4293      	cmp	r3, r2
    1554:	d82a      	bhi.n	15ac <TEE_AllocateOperation+0x2a4>
    1556:	f04f 0213 	mov.w	r2, #19
    155a:	f2c1 0200 	movt	r2, #4096	; 0x1000
    155e:	4293      	cmp	r3, r2
    1560:	f000 81e6 	beq.w	1930 <TEE_AllocateOperation+0x628>
    1564:	f04f 0213 	mov.w	r2, #19
    1568:	f2c1 0200 	movt	r2, #4096	; 0x1000
    156c:	4293      	cmp	r3, r2
    156e:	d807      	bhi.n	1580 <TEE_AllocateOperation+0x278>
    1570:	f103 4370 	add.w	r3, r3, #4026531840	; 0xf0000000
    1574:	f1a3 0310 	sub.w	r3, r3, #16
    1578:	2b01      	cmp	r3, #1
    157a:	f200 8268 	bhi.w	1a4e <TEE_AllocateOperation+0x746>
    157e:	e1d7      	b.n	1930 <TEE_AllocateOperation+0x628>
    1580:	f44f 7288 	mov.w	r2, #272	; 0x110
    1584:	f2c1 0200 	movt	r2, #4096	; 0x1000
    1588:	4293      	cmp	r3, r2
    158a:	f0c0 8260 	bcc.w	1a4e <TEE_AllocateOperation+0x746>
    158e:	f240 1211 	movw	r2, #273	; 0x111
    1592:	f2c1 0200 	movt	r2, #4096	; 0x1000
    1596:	4293      	cmp	r3, r2
    1598:	f240 81ca 	bls.w	1930 <TEE_AllocateOperation+0x628>
    159c:	f240 1213 	movw	r2, #275	; 0x113
    15a0:	f2c1 0200 	movt	r2, #4096	; 0x1000
    15a4:	4293      	cmp	r3, r2
    15a6:	f000 81c3 	beq.w	1930 <TEE_AllocateOperation+0x628>
    15aa:	e250      	b.n	1a4e <TEE_AllocateOperation+0x746>
    15ac:	f04f 0206 	mov.w	r2, #6
    15b0:	f2c3 0200 	movt	r2, #12288	; 0x3000
    15b4:	4293      	cmp	r3, r2
    15b6:	d812      	bhi.n	15de <TEE_AllocateOperation+0x2d6>
    15b8:	f1b3 5f40 	cmp.w	r3, #805306368	; 0x30000000
    15bc:	f200 823b 	bhi.w	1a36 <TEE_AllocateOperation+0x72e>
    15c0:	f44f 7244 	mov.w	r2, #784	; 0x310
    15c4:	f2c1 0200 	movt	r2, #4096	; 0x1000
    15c8:	4293      	cmp	r3, r2
    15ca:	f000 81ad 	beq.w	1928 <TEE_AllocateOperation+0x620>
    15ce:	f44f 6282 	mov.w	r2, #1040	; 0x410
    15d2:	f2c1 0200 	movt	r2, #4096	; 0x1000
    15d6:	4293      	cmp	r3, r2
    15d8:	f000 81a6 	beq.w	1928 <TEE_AllocateOperation+0x620>
    15dc:	e237      	b.n	1a4e <TEE_AllocateOperation+0x746>
    15de:	f44f 7288 	mov.w	r2, #272	; 0x110
    15e2:	f2c3 0200 	movt	r2, #12288	; 0x3000
    15e6:	4293      	cmp	r3, r2
    15e8:	f0c0 8231 	bcc.w	1a4e <TEE_AllocateOperation+0x746>
    15ec:	f240 1211 	movw	r2, #273	; 0x111
    15f0:	f2c3 0200 	movt	r2, #12288	; 0x3000
    15f4:	4293      	cmp	r3, r2
    15f6:	f240 821e 	bls.w	1a36 <TEE_AllocateOperation+0x72e>
    15fa:	f240 1213 	movw	r2, #275	; 0x113
    15fe:	f2c3 0200 	movt	r2, #12288	; 0x3000
    1602:	4293      	cmp	r3, r2
    1604:	f000 8217 	beq.w	1a36 <TEE_AllocateOperation+0x72e>
    1608:	e221      	b.n	1a4e <TEE_AllocateOperation+0x746>
    160a:	f44f 7298 	mov.w	r2, #304	; 0x130
    160e:	f2c6 0200 	movt	r2, #24576	; 0x6000
    1612:	4293      	cmp	r3, r2
    1614:	f000 81c1 	beq.w	199a <TEE_AllocateOperation+0x692>
    1618:	f44f 7298 	mov.w	r2, #304	; 0x130
    161c:	f2c6 0200 	movt	r2, #24576	; 0x6000
    1620:	4293      	cmp	r3, r2
    1622:	d835      	bhi.n	1690 <TEE_AllocateOperation+0x388>
    1624:	f44f 6201 	mov.w	r2, #2064	; 0x810
    1628:	f2c4 0200 	movt	r2, #16384	; 0x4000
    162c:	4293      	cmp	r3, r2
    162e:	f000 818a 	beq.w	1946 <TEE_AllocateOperation+0x63e>
    1632:	f44f 6201 	mov.w	r2, #2064	; 0x810
    1636:	f2c4 0200 	movt	r2, #16384	; 0x4000
    163a:	4293      	cmp	r3, r2
    163c:	d815      	bhi.n	166a <TEE_AllocateOperation+0x362>
    163e:	f44f 62c2 	mov.w	r2, #1552	; 0x610
    1642:	f2c3 0200 	movt	r2, #12288	; 0x3000
    1646:	4293      	cmp	r3, r2
    1648:	f000 81f5 	beq.w	1a36 <TEE_AllocateOperation+0x72e>
    164c:	f44f 62e2 	mov.w	r2, #1808	; 0x710
    1650:	f2c4 0200 	movt	r2, #16384	; 0x4000
    1654:	4293      	cmp	r3, r2
    1656:	f000 816b 	beq.w	1930 <TEE_AllocateOperation+0x628>
    165a:	f240 5213 	movw	r2, #1299	; 0x513
    165e:	f2c3 0200 	movt	r2, #12288	; 0x3000
    1662:	4293      	cmp	r3, r2
    1664:	f000 81e7 	beq.w	1a36 <TEE_AllocateOperation+0x72e>
    1668:	e1f1      	b.n	1a4e <TEE_AllocateOperation+0x746>
    166a:	f1b3 4fa0 	cmp.w	r3, #1342177280	; 0x50000000
    166e:	f240 81ee 	bls.w	1a4e <TEE_AllocateOperation+0x746>
    1672:	f04f 0206 	mov.w	r2, #6
    1676:	f2c5 0200 	movt	r2, #20480	; 0x5000
    167a:	4293      	cmp	r3, r2
    167c:	f240 81cb 	bls.w	1a16 <TEE_AllocateOperation+0x70e>
    1680:	f04f 0230 	mov.w	r2, #48	; 0x30
    1684:	f2c6 0200 	movt	r2, #24576	; 0x6000
    1688:	4293      	cmp	r3, r2
    168a:	f000 819d 	beq.w	19c8 <TEE_AllocateOperation+0x6c0>
    168e:	e1de      	b.n	1a4e <TEE_AllocateOperation+0x746>
    1690:	f44f 720c 	mov.w	r2, #560	; 0x230
    1694:	f2c6 0251 	movt	r2, #24657	; 0x6051
    1698:	4293      	cmp	r3, r2
    169a:	f000 817e 	beq.w	199a <TEE_AllocateOperation+0x692>
    169e:	f44f 720c 	mov.w	r2, #560	; 0x230
    16a2:	f2c6 0251 	movt	r2, #24657	; 0x6051
    16a6:	4293      	cmp	r3, r2
    16a8:	d815      	bhi.n	16d6 <TEE_AllocateOperation+0x3ce>
    16aa:	f44f 720c 	mov.w	r2, #560	; 0x230
    16ae:	f2c6 0231 	movt	r2, #24625	; 0x6031
    16b2:	4293      	cmp	r3, r2
    16b4:	f000 8171 	beq.w	199a <TEE_AllocateOperation+0x692>
    16b8:	f44f 720c 	mov.w	r2, #560	; 0x230
    16bc:	f2c6 0241 	movt	r2, #24641	; 0x6041
    16c0:	4293      	cmp	r3, r2
    16c2:	f000 816a 	beq.w	199a <TEE_AllocateOperation+0x692>
    16c6:	f44f 720c 	mov.w	r2, #560	; 0x230
    16ca:	f2c6 0221 	movt	r2, #24609	; 0x6021
    16ce:	4293      	cmp	r3, r2
    16d0:	f000 8163 	beq.w	199a <TEE_AllocateOperation+0x692>
    16d4:	e1bb      	b.n	1a4e <TEE_AllocateOperation+0x746>
    16d6:	f241 0241 	movw	r2, #4161	; 0x1041
    16da:	f2c7 0200 	movt	r2, #28672	; 0x7000
    16de:	4293      	cmp	r3, r2
    16e0:	f000 8144 	beq.w	196c <TEE_AllocateOperation+0x664>
    16e4:	f241 0241 	movw	r2, #4161	; 0x1041
    16e8:	f2c7 0200 	movt	r2, #28672	; 0x7000
    16ec:	4293      	cmp	r3, r2
    16ee:	d807      	bhi.n	1700 <TEE_AllocateOperation+0x3f8>
    16f0:	f44f 720c 	mov.w	r2, #560	; 0x230
    16f4:	f2c6 0261 	movt	r2, #24673	; 0x6061
    16f8:	4293      	cmp	r3, r2
    16fa:	f000 814e 	beq.w	199a <TEE_AllocateOperation+0x692>
    16fe:	e1a6      	b.n	1a4e <TEE_AllocateOperation+0x746>
    1700:	f641 0230 	movw	r2, #6192	; 0x1830
    1704:	f2c7 0200 	movt	r2, #28672	; 0x7000
    1708:	4293      	cmp	r3, r2
    170a:	f000 812f 	beq.w	196c <TEE_AllocateOperation+0x664>
    170e:	f242 0241 	movw	r2, #8257	; 0x2041
    1712:	f2c7 0200 	movt	r2, #28672	; 0x7000
    1716:	4293      	cmp	r3, r2
    1718:	f000 8128 	beq.w	196c <TEE_AllocateOperation+0x664>
    171c:	e197      	b.n	1a4e <TEE_AllocateOperation+0x746>
    171e:	f04f 0232 	mov.w	r2, #50	; 0x32
    1722:	f2c8 0200 	movt	r2, #32768	; 0x8000
    1726:	4293      	cmp	r3, r2
    1728:	f000 8165 	beq.w	19f6 <TEE_AllocateOperation+0x6ee>
    172c:	f04f 0232 	mov.w	r2, #50	; 0x32
    1730:	f2c8 0200 	movt	r2, #32768	; 0x8000
    1734:	4293      	cmp	r3, r2
    1736:	d87e      	bhi.n	1836 <TEE_AllocateOperation+0x52e>
    1738:	f245 0241 	movw	r2, #20545	; 0x5041
    173c:	f2c7 0200 	movt	r2, #28672	; 0x7000
    1740:	4293      	cmp	r3, r2
    1742:	f000 8113 	beq.w	196c <TEE_AllocateOperation+0x664>
    1746:	f245 0241 	movw	r2, #20545	; 0x5041
    174a:	f2c7 0200 	movt	r2, #28672	; 0x7000
    174e:	4293      	cmp	r3, r2
    1750:	d838      	bhi.n	17c4 <TEE_AllocateOperation+0x4bc>
    1752:	f643 0230 	movw	r2, #14384	; 0x3830
    1756:	f2c7 0200 	movt	r2, #28672	; 0x7000
    175a:	4293      	cmp	r3, r2
    175c:	f000 8106 	beq.w	196c <TEE_AllocateOperation+0x664>
    1760:	f643 0230 	movw	r2, #14384	; 0x3830
    1764:	f2c7 0200 	movt	r2, #28672	; 0x7000
    1768:	4293      	cmp	r3, r2
    176a:	d815      	bhi.n	1798 <TEE_AllocateOperation+0x490>
    176c:	f243 0241 	movw	r2, #12353	; 0x3041
    1770:	f2c7 0200 	movt	r2, #28672	; 0x7000
    1774:	4293      	cmp	r3, r2
    1776:	f000 80f9 	beq.w	196c <TEE_AllocateOperation+0x664>
    177a:	f243 1231 	movw	r2, #12593	; 0x3131
    177e:	f2c7 0200 	movt	r2, #28672	; 0x7000
    1782:	4293      	cmp	r3, r2
    1784:	f000 80f2 	beq.w	196c <TEE_AllocateOperation+0x664>
    1788:	f642 0230 	movw	r2, #10288	; 0x2830
    178c:	f2c7 0200 	movt	r2, #28672	; 0x7000
    1790:	4293      	cmp	r3, r2
    1792:	f000 80eb 	beq.w	196c <TEE_AllocateOperation+0x664>
    1796:	e15a      	b.n	1a4e <TEE_AllocateOperation+0x746>
    1798:	f244 1231 	movw	r2, #16689	; 0x4131
    179c:	f2c7 0200 	movt	r2, #28672	; 0x7000
    17a0:	4293      	cmp	r3, r2
    17a2:	f000 80e3 	beq.w	196c <TEE_AllocateOperation+0x664>
    17a6:	f644 0230 	movw	r2, #18480	; 0x4830
    17aa:	f2c7 0200 	movt	r2, #28672	; 0x7000
    17ae:	4293      	cmp	r3, r2
    17b0:	f000 80dc 	beq.w	196c <TEE_AllocateOperation+0x664>
    17b4:	f244 0241 	movw	r2, #16449	; 0x4041
    17b8:	f2c7 0200 	movt	r2, #28672	; 0x7000
    17bc:	4293      	cmp	r3, r2
    17be:	f000 80d5 	beq.w	196c <TEE_AllocateOperation+0x664>
    17c2:	e144      	b.n	1a4e <TEE_AllocateOperation+0x746>
    17c4:	f643 1230 	movw	r2, #14640	; 0x3930
    17c8:	f2c7 0231 	movt	r2, #28721	; 0x7031
    17cc:	4293      	cmp	r3, r2
    17ce:	f000 80cd 	beq.w	196c <TEE_AllocateOperation+0x664>
    17d2:	f643 1230 	movw	r2, #14640	; 0x3930
    17d6:	f2c7 0231 	movt	r2, #28721	; 0x7031
    17da:	4293      	cmp	r3, r2
    17dc:	d815      	bhi.n	180a <TEE_AllocateOperation+0x502>
    17de:	f646 0230 	movw	r2, #26672	; 0x6830
    17e2:	f2c7 0200 	movt	r2, #28672	; 0x7000
    17e6:	4293      	cmp	r3, r2
    17e8:	f000 80c0 	beq.w	196c <TEE_AllocateOperation+0x664>
    17ec:	f642 1230 	movw	r2, #10544	; 0x2930
    17f0:	f2c7 0221 	movt	r2, #28705	; 0x7021
    17f4:	4293      	cmp	r3, r2
    17f6:	f000 80b9 	beq.w	196c <TEE_AllocateOperation+0x664>
    17fa:	f645 0230 	movw	r2, #22576	; 0x5830
    17fe:	f2c7 0200 	movt	r2, #28672	; 0x7000
    1802:	4293      	cmp	r3, r2
    1804:	f000 80b2 	beq.w	196c <TEE_AllocateOperation+0x664>
    1808:	e121      	b.n	1a4e <TEE_AllocateOperation+0x746>
    180a:	f645 1230 	movw	r2, #22832	; 0x5930
    180e:	f2c7 0251 	movt	r2, #28753	; 0x7051
    1812:	4293      	cmp	r3, r2
    1814:	f000 80aa 	beq.w	196c <TEE_AllocateOperation+0x664>
    1818:	f646 1230 	movw	r2, #26928	; 0x6930
    181c:	f2c7 0261 	movt	r2, #28769	; 0x7061
    1820:	4293      	cmp	r3, r2
    1822:	f000 80a3 	beq.w	196c <TEE_AllocateOperation+0x664>
    1826:	f644 1230 	movw	r2, #18736	; 0x4930
    182a:	f2c7 0241 	movt	r2, #28737	; 0x7041
    182e:	4293      	cmp	r3, r2
    1830:	f000 809c 	beq.w	196c <TEE_AllocateOperation+0x664>
    1834:	e10b      	b.n	1a4e <TEE_AllocateOperation+0x746>
    1836:	f243 02c1 	movw	r2, #12481	; 0x30c1
    183a:	f2c8 0200 	movt	r2, #32768	; 0x8000
    183e:	4293      	cmp	r3, r2
    1840:	d838      	bhi.n	18b4 <TEE_AllocateOperation+0x5ac>
    1842:	f44f 5243 	mov.w	r2, #12480	; 0x30c0
    1846:	f2c8 0200 	movt	r2, #32768	; 0x8000
    184a:	4293      	cmp	r3, r2
    184c:	f080 80d3 	bcs.w	19f6 <TEE_AllocateOperation+0x6ee>
    1850:	f242 0242 	movw	r2, #8258	; 0x2042
    1854:	f2c8 0200 	movt	r2, #32768	; 0x8000
    1858:	4293      	cmp	r3, r2
    185a:	f000 80cc 	beq.w	19f6 <TEE_AllocateOperation+0x6ee>
    185e:	f242 0242 	movw	r2, #8258	; 0x2042
    1862:	f2c8 0200 	movt	r2, #32768	; 0x8000
    1866:	4293      	cmp	r3, r2
    1868:	d80e      	bhi.n	1888 <TEE_AllocateOperation+0x580>
    186a:	f241 0242 	movw	r2, #4162	; 0x1042
    186e:	f2c8 0200 	movt	r2, #32768	; 0x8000
    1872:	4293      	cmp	r3, r2
    1874:	f000 80bf 	beq.w	19f6 <TEE_AllocateOperation+0x6ee>
    1878:	f44f 5286 	mov.w	r2, #4288	; 0x10c0
    187c:	f2c8 0200 	movt	r2, #32768	; 0x8000
    1880:	4293      	cmp	r3, r2
    1882:	f000 80b8 	beq.w	19f6 <TEE_AllocateOperation+0x6ee>
    1886:	e0e2      	b.n	1a4e <TEE_AllocateOperation+0x746>
    1888:	f44f 5203 	mov.w	r2, #8384	; 0x20c0
    188c:	f2c8 0200 	movt	r2, #32768	; 0x8000
    1890:	4293      	cmp	r3, r2
    1892:	f0c0 80dc 	bcc.w	1a4e <TEE_AllocateOperation+0x746>
    1896:	f242 02c2 	movw	r2, #8386	; 0x20c2
    189a:	f2c8 0200 	movt	r2, #32768	; 0x8000
    189e:	4293      	cmp	r3, r2
    18a0:	f240 80a9 	bls.w	19f6 <TEE_AllocateOperation+0x6ee>
    18a4:	f243 0242 	movw	r2, #12354	; 0x3042
    18a8:	f2c8 0200 	movt	r2, #32768	; 0x8000
    18ac:	4293      	cmp	r3, r2
    18ae:	f000 80a2 	beq.w	19f6 <TEE_AllocateOperation+0x6ee>
    18b2:	e0cc      	b.n	1a4e <TEE_AllocateOperation+0x746>
    18b4:	f245 0242 	movw	r2, #20546	; 0x5042
    18b8:	f2c8 0200 	movt	r2, #32768	; 0x8000
    18bc:	4293      	cmp	r3, r2
    18be:	f000 809a 	beq.w	19f6 <TEE_AllocateOperation+0x6ee>
    18c2:	f245 0242 	movw	r2, #20546	; 0x5042
    18c6:	f2c8 0200 	movt	r2, #32768	; 0x8000
    18ca:	4293      	cmp	r3, r2
    18cc:	d816      	bhi.n	18fc <TEE_AllocateOperation+0x5f4>
    18ce:	f244 0242 	movw	r2, #16450	; 0x4042
    18d2:	f2c8 0200 	movt	r2, #32768	; 0x8000
    18d6:	4293      	cmp	r3, r2
    18d8:	f000 808d 	beq.w	19f6 <TEE_AllocateOperation+0x6ee>
    18dc:	f244 0242 	movw	r2, #16450	; 0x4042
    18e0:	f2c8 0200 	movt	r2, #32768	; 0x8000
    18e4:	4293      	cmp	r3, r2
    18e6:	f0c0 80b2 	bcc.w	1a4e <TEE_AllocateOperation+0x746>
    18ea:	f64b 7240 	movw	r2, #48960	; 0xbf40
    18ee:	f6c7 72ff 	movt	r2, #32767	; 0x7fff
    18f2:	441a      	add	r2, r3
    18f4:	2a01      	cmp	r2, #1
    18f6:	f200 80aa 	bhi.w	1a4e <TEE_AllocateOperation+0x746>
    18fa:	e07c      	b.n	19f6 <TEE_AllocateOperation+0x6ee>
    18fc:	f245 02c0 	movw	r2, #20672	; 0x50c0
    1900:	f2c8 0200 	movt	r2, #32768	; 0x8000
    1904:	4293      	cmp	r3, r2
    1906:	f0c0 80a2 	bcc.w	1a4e <TEE_AllocateOperation+0x746>
    190a:	f245 02c1 	movw	r2, #20673	; 0x50c1
    190e:	f2c8 0200 	movt	r2, #32768	; 0x8000
    1912:	4293      	cmp	r3, r2
    1914:	d96f      	bls.n	19f6 <TEE_AllocateOperation+0x6ee>
    1916:	f649 7240 	movw	r2, #40768	; 0x9f40
    191a:	f6c7 72ff 	movt	r2, #32767	; 0x7fff
    191e:	441a      	add	r2, r3
    1920:	2a01      	cmp	r2, #1
    1922:	f200 8094 	bhi.w	1a4e <TEE_AllocateOperation+0x746>
    1926:	e066      	b.n	19f6 <TEE_AllocateOperation+0x6ee>
/home/wangzh/software/OP-TEE/optee_os/lib/libutee/tee_api_operations.c:133
    1928:	f04f 0301 	mov.w	r3, #1
    192c:	f887 3026 	strb.w	r3, [r7, #38]	; 0x26
/home/wangzh/software/OP-TEE/optee_os/lib/libutee/tee_api_operations.c:142
    1930:	68bb      	ldr	r3, [r7, #8]
    1932:	b2db      	uxtb	r3, r3
    1934:	2b10      	cmp	r3, #16
    1936:	d103      	bne.n	1940 <TEE_AllocateOperation+0x638>
/home/wangzh/software/OP-TEE/optee_os/lib/libutee/tee_api_operations.c:143
    1938:	f04f 0310 	mov.w	r3, #16
    193c:	62fb      	str	r3, [r7, #44]	; 0x2c
    193e:	e002      	b.n	1946 <TEE_AllocateOperation+0x63e>
/home/wangzh/software/OP-TEE/optee_os/lib/libutee/tee_api_operations.c:145
    1940:	f04f 0308 	mov.w	r3, #8
    1944:	62fb      	str	r3, [r7, #44]	; 0x2c
/home/wangzh/software/OP-TEE/optee_os/lib/libutee/tee_api_operations.c:149
    1946:	687b      	ldr	r3, [r7, #4]
    1948:	2b00      	cmp	r3, #0
    194a:	d103      	bne.n	1954 <TEE_AllocateOperation+0x64c>
/home/wangzh/software/OP-TEE/optee_os/lib/libutee/tee_api_operations.c:150
    194c:	f04f 0302 	mov.w	r3, #2
    1950:	62bb      	str	r3, [r7, #40]	; 0x28
/home/wangzh/software/OP-TEE/optee_os/lib/libutee/tee_api_operations.c:155
    1952:	e081      	b.n	1a58 <TEE_AllocateOperation+0x750>
/home/wangzh/software/OP-TEE/optee_os/lib/libutee/tee_api_operations.c:151
    1954:	687b      	ldr	r3, [r7, #4]
    1956:	2b01      	cmp	r3, #1
    1958:	d103      	bne.n	1962 <TEE_AllocateOperation+0x65a>
/home/wangzh/software/OP-TEE/optee_os/lib/libutee/tee_api_operations.c:152
    195a:	f04f 0304 	mov.w	r3, #4
    195e:	62bb      	str	r3, [r7, #40]	; 0x28
/home/wangzh/software/OP-TEE/optee_os/lib/libutee/tee_api_operations.c:155
    1960:	e07a      	b.n	1a58 <TEE_AllocateOperation+0x750>
/home/wangzh/software/OP-TEE/optee_os/lib/libutee/tee_api_operations.c:154
    1962:	f04f 030a 	mov.w	r3, #10
    1966:	f6cf 73ff 	movt	r3, #65535	; 0xffff
    196a:	e168      	b.n	1c3e <TEE_AllocateOperation+0x936>
/home/wangzh/software/OP-TEE/optee_os/lib/libutee/tee_api_operations.c:176
    196c:	687b      	ldr	r3, [r7, #4]
    196e:	2b02      	cmp	r3, #2
    1970:	d107      	bne.n	1982 <TEE_AllocateOperation+0x67a>
/home/wangzh/software/OP-TEE/optee_os/lib/libutee/tee_api_operations.c:177
    1972:	f04f 0301 	mov.w	r3, #1
    1976:	f887 3027 	strb.w	r3, [r7, #39]	; 0x27
/home/wangzh/software/OP-TEE/optee_os/lib/libutee/tee_api_operations.c:178
    197a:	f04f 0310 	mov.w	r3, #16
    197e:	62bb      	str	r3, [r7, #40]	; 0x28
/home/wangzh/software/OP-TEE/optee_os/lib/libutee/tee_api_operations.c:184
    1980:	e06a      	b.n	1a58 <TEE_AllocateOperation+0x750>
/home/wangzh/software/OP-TEE/optee_os/lib/libutee/tee_api_operations.c:179
    1982:	687b      	ldr	r3, [r7, #4]
    1984:	2b03      	cmp	r3, #3
    1986:	d103      	bne.n	1990 <TEE_AllocateOperation+0x688>
/home/wangzh/software/OP-TEE/optee_os/lib/libutee/tee_api_operations.c:180
    1988:	f04f 0320 	mov.w	r3, #32
    198c:	62bb      	str	r3, [r7, #40]	; 0x28
/home/wangzh/software/OP-TEE/optee_os/lib/libutee/tee_api_operations.c:184
    198e:	e063      	b.n	1a58 <TEE_AllocateOperation+0x750>
/home/wangzh/software/OP-TEE/optee_os/lib/libutee/tee_api_operations.c:182
    1990:	f04f 030a 	mov.w	r3, #10
    1994:	f6cf 73ff 	movt	r3, #65535	; 0xffff
    1998:	e151      	b.n	1c3e <TEE_AllocateOperation+0x936>
/home/wangzh/software/OP-TEE/optee_os/lib/libutee/tee_api_operations.c:192
    199a:	687b      	ldr	r3, [r7, #4]
    199c:	2b00      	cmp	r3, #0
    199e:	d103      	bne.n	19a8 <TEE_AllocateOperation+0x6a0>
/home/wangzh/software/OP-TEE/optee_os/lib/libutee/tee_api_operations.c:193
    19a0:	f04f 0302 	mov.w	r3, #2
    19a4:	62bb      	str	r3, [r7, #40]	; 0x28
/home/wangzh/software/OP-TEE/optee_os/lib/libutee/tee_api_operations.c:200
    19a6:	e057      	b.n	1a58 <TEE_AllocateOperation+0x750>
/home/wangzh/software/OP-TEE/optee_os/lib/libutee/tee_api_operations.c:194
    19a8:	687b      	ldr	r3, [r7, #4]
    19aa:	2b01      	cmp	r3, #1
    19ac:	d107      	bne.n	19be <TEE_AllocateOperation+0x6b6>
/home/wangzh/software/OP-TEE/optee_os/lib/libutee/tee_api_operations.c:195
    19ae:	f04f 0301 	mov.w	r3, #1
    19b2:	f887 3027 	strb.w	r3, [r7, #39]	; 0x27
/home/wangzh/software/OP-TEE/optee_os/lib/libutee/tee_api_operations.c:196
    19b6:	f04f 0304 	mov.w	r3, #4
    19ba:	62bb      	str	r3, [r7, #40]	; 0x28
/home/wangzh/software/OP-TEE/optee_os/lib/libutee/tee_api_operations.c:200
    19bc:	e04c      	b.n	1a58 <TEE_AllocateOperation+0x750>
/home/wangzh/software/OP-TEE/optee_os/lib/libutee/tee_api_operations.c:198
    19be:	f04f 030a 	mov.w	r3, #10
    19c2:	f6cf 73ff 	movt	r3, #65535	; 0xffff
    19c6:	e13a      	b.n	1c3e <TEE_AllocateOperation+0x936>
/home/wangzh/software/OP-TEE/optee_os/lib/libutee/tee_api_operations.c:203
    19c8:	687b      	ldr	r3, [r7, #4]
    19ca:	2b00      	cmp	r3, #0
    19cc:	d103      	bne.n	19d6 <TEE_AllocateOperation+0x6ce>
/home/wangzh/software/OP-TEE/optee_os/lib/libutee/tee_api_operations.c:204
    19ce:	f04f 0322 	mov.w	r3, #34	; 0x22
    19d2:	62bb      	str	r3, [r7, #40]	; 0x28
/home/wangzh/software/OP-TEE/optee_os/lib/libutee/tee_api_operations.c:211
    19d4:	e040      	b.n	1a58 <TEE_AllocateOperation+0x750>
/home/wangzh/software/OP-TEE/optee_os/lib/libutee/tee_api_operations.c:205
    19d6:	687b      	ldr	r3, [r7, #4]
    19d8:	2b01      	cmp	r3, #1
    19da:	d107      	bne.n	19ec <TEE_AllocateOperation+0x6e4>
/home/wangzh/software/OP-TEE/optee_os/lib/libutee/tee_api_operations.c:206
    19dc:	f04f 0301 	mov.w	r3, #1
    19e0:	f887 3027 	strb.w	r3, [r7, #39]	; 0x27
/home/wangzh/software/OP-TEE/optee_os/lib/libutee/tee_api_operations.c:207
    19e4:	f04f 0314 	mov.w	r3, #20
    19e8:	62bb      	str	r3, [r7, #40]	; 0x28
/home/wangzh/software/OP-TEE/optee_os/lib/libutee/tee_api_operations.c:211
    19ea:	e035      	b.n	1a58 <TEE_AllocateOperation+0x750>
/home/wangzh/software/OP-TEE/optee_os/lib/libutee/tee_api_operations.c:209
    19ec:	f04f 030a 	mov.w	r3, #10
    19f0:	f6cf 73ff 	movt	r3, #65535	; 0xffff
    19f4:	e123      	b.n	1c3e <TEE_AllocateOperation+0x936>
/home/wangzh/software/OP-TEE/optee_os/lib/libutee/tee_api_operations.c:231
    19f6:	687b      	ldr	r3, [r7, #4]
    19f8:	2b06      	cmp	r3, #6
    19fa:	d004      	beq.n	1a06 <TEE_AllocateOperation+0x6fe>
/home/wangzh/software/OP-TEE/optee_os/lib/libutee/tee_api_operations.c:232
    19fc:	f04f 030a 	mov.w	r3, #10
    1a00:	f6cf 73ff 	movt	r3, #65535	; 0xffff
    1a04:	e11b      	b.n	1c3e <TEE_AllocateOperation+0x936>
/home/wangzh/software/OP-TEE/optee_os/lib/libutee/tee_api_operations.c:233
    1a06:	f04f 0301 	mov.w	r3, #1
    1a0a:	f887 3027 	strb.w	r3, [r7, #39]	; 0x27
/home/wangzh/software/OP-TEE/optee_os/lib/libutee/tee_api_operations.c:234
    1a0e:	f04f 0340 	mov.w	r3, #64	; 0x40
    1a12:	62bb      	str	r3, [r7, #40]	; 0x28
/home/wangzh/software/OP-TEE/optee_os/lib/libutee/tee_api_operations.c:235
    1a14:	e020      	b.n	1a58 <TEE_AllocateOperation+0x750>
/home/wangzh/software/OP-TEE/optee_os/lib/libutee/tee_api_operations.c:243
    1a16:	687b      	ldr	r3, [r7, #4]
    1a18:	2b05      	cmp	r3, #5
    1a1a:	d004      	beq.n	1a26 <TEE_AllocateOperation+0x71e>
/home/wangzh/software/OP-TEE/optee_os/lib/libutee/tee_api_operations.c:244
    1a1c:	f04f 030a 	mov.w	r3, #10
    1a20:	f6cf 73ff 	movt	r3, #65535	; 0xffff
    1a24:	e10b      	b.n	1c3e <TEE_AllocateOperation+0x936>
/home/wangzh/software/OP-TEE/optee_os/lib/libutee/tee_api_operations.c:246
    1a26:	6b3b      	ldr	r3, [r7, #48]	; 0x30
    1a28:	f443 2380 	orr.w	r3, r3, #262144	; 0x40000
    1a2c:	633b      	str	r3, [r7, #48]	; 0x30
/home/wangzh/software/OP-TEE/optee_os/lib/libutee/tee_api_operations.c:247
    1a2e:	f04f 0300 	mov.w	r3, #0
    1a32:	62bb      	str	r3, [r7, #40]	; 0x28
/home/wangzh/software/OP-TEE/optee_os/lib/libutee/tee_api_operations.c:248
    1a34:	e010      	b.n	1a58 <TEE_AllocateOperation+0x750>
/home/wangzh/software/OP-TEE/optee_os/lib/libutee/tee_api_operations.c:263
    1a36:	687b      	ldr	r3, [r7, #4]
    1a38:	2b04      	cmp	r3, #4
    1a3a:	d004      	beq.n	1a46 <TEE_AllocateOperation+0x73e>
/home/wangzh/software/OP-TEE/optee_os/lib/libutee/tee_api_operations.c:264
    1a3c:	f04f 030a 	mov.w	r3, #10
    1a40:	f6cf 73ff 	movt	r3, #65535	; 0xffff
    1a44:	e0fb      	b.n	1c3e <TEE_AllocateOperation+0x936>
/home/wangzh/software/OP-TEE/optee_os/lib/libutee/tee_api_operations.c:265
    1a46:	f04f 0308 	mov.w	r3, #8
    1a4a:	62bb      	str	r3, [r7, #40]	; 0x28
/home/wangzh/software/OP-TEE/optee_os/lib/libutee/tee_api_operations.c:266
    1a4c:	e004      	b.n	1a58 <TEE_AllocateOperation+0x750>
/home/wangzh/software/OP-TEE/optee_os/lib/libutee/tee_api_operations.c:269
    1a4e:	f04f 030a 	mov.w	r3, #10
    1a52:	f6cf 73ff 	movt	r3, #65535	; 0xffff
    1a56:	e0f2      	b.n	1c3e <TEE_AllocateOperation+0x936>
/home/wangzh/software/OP-TEE/optee_os/lib/libutee/tee_api_operations.c:272
    1a58:	f04f 0100 	mov.w	r1, #0
    1a5c:	f04f 0044 	mov.w	r0, #68	; 0x44
    1a60:	f003 ff14 	bl	588c <TEE_Malloc>
    1a64:	61b8      	str	r0, [r7, #24]
/home/wangzh/software/OP-TEE/optee_os/lib/libutee/tee_api_operations.c:273
    1a66:	69bb      	ldr	r3, [r7, #24]
    1a68:	2b00      	cmp	r3, #0
    1a6a:	d104      	bne.n	1a76 <TEE_AllocateOperation+0x76e>
/home/wangzh/software/OP-TEE/optee_os/lib/libutee/tee_api_operations.c:274
    1a6c:	f04f 030c 	mov.w	r3, #12
    1a70:	f6cf 73ff 	movt	r3, #65535	; 0xffff
    1a74:	e0e3      	b.n	1c3e <TEE_AllocateOperation+0x936>
/home/wangzh/software/OP-TEE/optee_os/lib/libutee/tee_api_operations.c:276
    1a76:	69bb      	ldr	r3, [r7, #24]
    1a78:	68ba      	ldr	r2, [r7, #8]
    1a7a:	601a      	str	r2, [r3, #0]
/home/wangzh/software/OP-TEE/optee_os/lib/libutee/tee_api_operations.c:277
    1a7c:	68bb      	ldr	r3, [r7, #8]
    1a7e:	ea4f 7213 	mov.w	r2, r3, lsr #28
    1a82:	69bb      	ldr	r3, [r7, #24]
    1a84:	605a      	str	r2, [r3, #4]
/home/wangzh/software/OP-TEE/optee_os/lib/libutee/tee_api_operations.c:278
    1a86:	69bb      	ldr	r3, [r7, #24]
    1a88:	687a      	ldr	r2, [r7, #4]
    1a8a:	609a      	str	r2, [r3, #8]
/home/wangzh/software/OP-TEE/optee_os/lib/libutee/tee_api_operations.c:279
    1a8c:	69bb      	ldr	r3, [r7, #24]
    1a8e:	683a      	ldr	r2, [r7, #0]
    1a90:	611a      	str	r2, [r3, #16]
/home/wangzh/software/OP-TEE/optee_os/lib/libutee/tee_api_operations.c:280
    1a92:	69bb      	ldr	r3, [r7, #24]
    1a94:	6aba      	ldr	r2, [r7, #40]	; 0x28
    1a96:	619a      	str	r2, [r3, #24]
/home/wangzh/software/OP-TEE/optee_os/lib/libutee/tee_api_operations.c:281
    1a98:	69bb      	ldr	r3, [r7, #24]
    1a9a:	6b3a      	ldr	r2, [r7, #48]	; 0x30
    1a9c:	61da      	str	r2, [r3, #28]
/home/wangzh/software/OP-TEE/optee_os/lib/libutee/tee_api_operations.c:283
    1a9e:	6afb      	ldr	r3, [r7, #44]	; 0x2c
    1aa0:	2b01      	cmp	r3, #1
    1aa2:	d91b      	bls.n	1adc <TEE_AllocateOperation+0x7d4>
/home/wangzh/software/OP-TEE/optee_os/lib/libutee/tee_api_operations.c:284
    1aa4:	6afb      	ldr	r3, [r7, #44]	; 0x2c
    1aa6:	623b      	str	r3, [r7, #32]
/home/wangzh/software/OP-TEE/optee_os/lib/libutee/tee_api_operations.c:286
    1aa8:	f897 3026 	ldrb.w	r3, [r7, #38]	; 0x26
    1aac:	2b00      	cmp	r3, #0
    1aae:	d003      	beq.n	1ab8 <TEE_AllocateOperation+0x7b0>
/home/wangzh/software/OP-TEE/optee_os/lib/libutee/tee_api_operations.c:287
    1ab0:	6a3b      	ldr	r3, [r7, #32]
    1ab2:	ea4f 0343 	mov.w	r3, r3, lsl #1
    1ab6:	623b      	str	r3, [r7, #32]
/home/wangzh/software/OP-TEE/optee_os/lib/libutee/tee_api_operations.c:289
    1ab8:	f04f 4100 	mov.w	r1, #2147483648	; 0x80000000
    1abc:	6a38      	ldr	r0, [r7, #32]
    1abe:	f003 fee5 	bl	588c <TEE_Malloc>
    1ac2:	4602      	mov	r2, r0
    1ac4:	69bb      	ldr	r3, [r7, #24]
    1ac6:	62da      	str	r2, [r3, #44]	; 0x2c
/home/wangzh/software/OP-TEE/optee_os/lib/libutee/tee_api_operations.c:291
    1ac8:	69bb      	ldr	r3, [r7, #24]
    1aca:	6adb      	ldr	r3, [r3, #44]	; 0x2c
    1acc:	2b00      	cmp	r3, #0
    1ace:	d105      	bne.n	1adc <TEE_AllocateOperation+0x7d4>
/home/wangzh/software/OP-TEE/optee_os/lib/libutee/tee_api_operations.c:292
    1ad0:	f04f 030c 	mov.w	r3, #12
    1ad4:	f6cf 73ff 	movt	r3, #65535	; 0xffff
    1ad8:	637b      	str	r3, [r7, #52]	; 0x34
/home/wangzh/software/OP-TEE/optee_os/lib/libutee/tee_api_operations.c:293
    1ada:	e07e      	b.n	1bda <TEE_AllocateOperation+0x8d2>
/home/wangzh/software/OP-TEE/optee_os/lib/libutee/tee_api_operations.c:296
    1adc:	69bb      	ldr	r3, [r7, #24]
    1ade:	6afa      	ldr	r2, [r7, #44]	; 0x2c
    1ae0:	635a      	str	r2, [r3, #52]	; 0x34
/home/wangzh/software/OP-TEE/optee_os/lib/libutee/tee_api_operations.c:297
    1ae2:	69bb      	ldr	r3, [r7, #24]
    1ae4:	f897 2026 	ldrb.w	r2, [r7, #38]	; 0x26
    1ae8:	f883 2030 	strb.w	r2, [r3, #48]	; 0x30
/home/wangzh/software/OP-TEE/optee_os/lib/libutee/tee_api_operations.c:299
    1aec:	68bb      	ldr	r3, [r7, #8]
    1aee:	ea4f 7313 	mov.w	r3, r3, lsr #28
    1af2:	2b05      	cmp	r3, #5
    1af4:	d037      	beq.n	1b66 <TEE_AllocateOperation+0x85e>
/home/wangzh/software/OP-TEE/optee_os/lib/libutee/tee_api_operations.c:300
    1af6:	683b      	ldr	r3, [r7, #0]
    1af8:	61fb      	str	r3, [r7, #28]
/home/wangzh/software/OP-TEE/optee_os/lib/libutee/tee_api_operations.c:301
    1afa:	68bb      	ldr	r3, [r7, #8]
    1afc:	b2da      	uxtb	r2, r3
    1afe:	f897 3027 	ldrb.w	r3, [r7, #39]	; 0x27
    1b02:	2b00      	cmp	r3, #0
    1b04:	d002      	beq.n	1b0c <TEE_AllocateOperation+0x804>
/home/wangzh/software/OP-TEE/optee_os/lib/libutee/tee_api_operations.c:301 (discriminator 1)
    1b06:	f04f 4321 	mov.w	r3, #2701131776	; 0xa1000000
    1b0a:	e001      	b.n	1b10 <TEE_AllocateOperation+0x808>
/home/wangzh/software/OP-TEE/optee_os/lib/libutee/tee_api_operations.c:301 (discriminator 2)
    1b0c:	f04f 4320 	mov.w	r3, #2684354560	; 0xa0000000
/home/wangzh/software/OP-TEE/optee_os/lib/libutee/tee_api_operations.c:301 (discriminator 4)
    1b10:	ea43 0302 	orr.w	r3, r3, r2
    1b14:	617b      	str	r3, [r7, #20]
/home/wangzh/software/OP-TEE/optee_os/lib/libutee/tee_api_operations.c:308 (discriminator 4)
    1b16:	69bb      	ldr	r3, [r7, #24]
    1b18:	69db      	ldr	r3, [r3, #28]
    1b1a:	f403 2300 	and.w	r3, r3, #524288	; 0x80000
    1b1e:	2b00      	cmp	r3, #0
    1b20:	d003      	beq.n	1b2a <TEE_AllocateOperation+0x822>
/home/wangzh/software/OP-TEE/optee_os/lib/libutee/tee_api_operations.c:309
    1b22:	69fb      	ldr	r3, [r7, #28]
    1b24:	ea4f 0353 	mov.w	r3, r3, lsr #1
    1b28:	61fb      	str	r3, [r7, #28]
/home/wangzh/software/OP-TEE/optee_os/lib/libutee/tee_api_operations.c:311
    1b2a:	69bb      	ldr	r3, [r7, #24]
    1b2c:	f103 0320 	add.w	r3, r3, #32
    1b30:	461a      	mov	r2, r3
    1b32:	69f9      	ldr	r1, [r7, #28]
    1b34:	6978      	ldr	r0, [r7, #20]
    1b36:	f009 fbec 	bl	b312 <TEE_AllocateTransientObject>
    1b3a:	6378      	str	r0, [r7, #52]	; 0x34
/home/wangzh/software/OP-TEE/optee_os/lib/libutee/tee_api_operations.c:312
    1b3c:	6b7b      	ldr	r3, [r7, #52]	; 0x34
    1b3e:	2b00      	cmp	r3, #0
    1b40:	d144      	bne.n	1bcc <TEE_AllocateOperation+0x8c4>
/home/wangzh/software/OP-TEE/optee_os/lib/libutee/tee_api_operations.c:315
    1b42:	69bb      	ldr	r3, [r7, #24]
    1b44:	69db      	ldr	r3, [r3, #28]
    1b46:	f403 2300 	and.w	r3, r3, #524288	; 0x80000
    1b4a:	2b00      	cmp	r3, #0
    1b4c:	d00b      	beq.n	1b66 <TEE_AllocateOperation+0x85e>
/home/wangzh/software/OP-TEE/optee_os/lib/libutee/tee_api_operations.c:316
    1b4e:	69bb      	ldr	r3, [r7, #24]
    1b50:	f103 0324 	add.w	r3, r3, #36	; 0x24
    1b54:	461a      	mov	r2, r3
    1b56:	69f9      	ldr	r1, [r7, #28]
    1b58:	6978      	ldr	r0, [r7, #20]
    1b5a:	f009 fbda 	bl	b312 <TEE_AllocateTransientObject>
    1b5e:	6378      	str	r0, [r7, #52]	; 0x34
/home/wangzh/software/OP-TEE/optee_os/lib/libutee/tee_api_operations.c:318
    1b60:	6b7b      	ldr	r3, [r7, #52]	; 0x34
    1b62:	2b00      	cmp	r3, #0
    1b64:	d134      	bne.n	1bd0 <TEE_AllocateOperation+0x8c8>
/home/wangzh/software/OP-TEE/optee_os/lib/libutee/tee_api_operations.c:323
    1b66:	69bb      	ldr	r3, [r7, #24]
    1b68:	6a1b      	ldr	r3, [r3, #32]
    1b6a:	461a      	mov	r2, r3
/home/wangzh/software/OP-TEE/optee_os/lib/libutee/tee_api_operations.c:324
    1b6c:	69bb      	ldr	r3, [r7, #24]
    1b6e:	6a5b      	ldr	r3, [r3, #36]	; 0x24
/home/wangzh/software/OP-TEE/optee_os/lib/libutee/tee_api_operations.c:323
    1b70:	4619      	mov	r1, r3
    1b72:	69bb      	ldr	r3, [r7, #24]
    1b74:	f103 033c 	add.w	r3, r3, #60	; 0x3c
    1b78:	9300      	str	r3, [sp, #0]
    1b7a:	460b      	mov	r3, r1
    1b7c:	6879      	ldr	r1, [r7, #4]
    1b7e:	68b8      	ldr	r0, [r7, #8]
    1b80:	f002 ec08 	blx	4394 <utee_cryp_state_alloc>
    1b84:	6378      	str	r0, [r7, #52]	; 0x34
/home/wangzh/software/OP-TEE/optee_os/lib/libutee/tee_api_operations.c:325
    1b86:	6b7b      	ldr	r3, [r7, #52]	; 0x34
    1b88:	2b00      	cmp	r3, #0
    1b8a:	d123      	bne.n	1bd4 <TEE_AllocateOperation+0x8cc>
/home/wangzh/software/OP-TEE/optee_os/lib/libutee/tee_api_operations.c:333
    1b8c:	68bb      	ldr	r3, [r7, #8]
    1b8e:	ea4f 7313 	mov.w	r3, r3, lsr #28
    1b92:	2b05      	cmp	r3, #5
    1b94:	d112      	bne.n	1bbc <TEE_AllocateOperation+0x8b4>
/home/wangzh/software/OP-TEE/optee_os/lib/libutee/tee_api_operations.c:334
    1b96:	69bb      	ldr	r3, [r7, #24]
    1b98:	6bdb      	ldr	r3, [r3, #60]	; 0x3c
    1b9a:	f04f 0200 	mov.w	r2, #0
    1b9e:	f04f 0100 	mov.w	r1, #0
    1ba2:	4618      	mov	r0, r3
    1ba4:	f002 ec16 	blx	43d4 <utee_hash_init>
    1ba8:	6378      	str	r0, [r7, #52]	; 0x34
/home/wangzh/software/OP-TEE/optee_os/lib/libutee/tee_api_operations.c:335
    1baa:	6b7b      	ldr	r3, [r7, #52]	; 0x34
    1bac:	2b00      	cmp	r3, #0
    1bae:	d113      	bne.n	1bd8 <TEE_AllocateOperation+0x8d0>
/home/wangzh/software/OP-TEE/optee_os/lib/libutee/tee_api_operations.c:338
    1bb0:	69bb      	ldr	r3, [r7, #24]
    1bb2:	69db      	ldr	r3, [r3, #28]
    1bb4:	f443 3200 	orr.w	r2, r3, #131072	; 0x20000
    1bb8:	69bb      	ldr	r3, [r7, #24]
    1bba:	61da      	str	r2, [r3, #28]
/home/wangzh/software/OP-TEE/optee_os/lib/libutee/tee_api_operations.c:341
    1bbc:	69bb      	ldr	r3, [r7, #24]
    1bbe:	f04f 0200 	mov.w	r2, #0
    1bc2:	629a      	str	r2, [r3, #40]	; 0x28
/home/wangzh/software/OP-TEE/optee_os/lib/libutee/tee_api_operations.c:343
    1bc4:	68fb      	ldr	r3, [r7, #12]
    1bc6:	69ba      	ldr	r2, [r7, #24]
    1bc8:	601a      	str	r2, [r3, #0]
    1bca:	e006      	b.n	1bda <TEE_AllocateOperation+0x8d2>
/home/wangzh/software/OP-TEE/optee_os/lib/libutee/tee_api_operations.c:313
    1bcc:	bf00      	nop
    1bce:	e004      	b.n	1bda <TEE_AllocateOperation+0x8d2>
/home/wangzh/software/OP-TEE/optee_os/lib/libutee/tee_api_operations.c:319
    1bd0:	bf00      	nop
    1bd2:	e002      	b.n	1bda <TEE_AllocateOperation+0x8d2>
/home/wangzh/software/OP-TEE/optee_os/lib/libutee/tee_api_operations.c:326
    1bd4:	bf00      	nop
    1bd6:	e000      	b.n	1bda <TEE_AllocateOperation+0x8d2>
/home/wangzh/software/OP-TEE/optee_os/lib/libutee/tee_api_operations.c:336
    1bd8:	bf00      	nop
/home/wangzh/software/OP-TEE/optee_os/lib/libutee/tee_api_operations.c:346
    1bda:	6b7b      	ldr	r3, [r7, #52]	; 0x34
    1bdc:	2b00      	cmp	r3, #0
    1bde:	d02d      	beq.n	1c3c <TEE_AllocateOperation+0x934>
/home/wangzh/software/OP-TEE/optee_os/lib/libutee/tee_api_operations.c:347
    1be0:	6b7a      	ldr	r2, [r7, #52]	; 0x34
    1be2:	f04f 030c 	mov.w	r3, #12
    1be6:	f6cf 73ff 	movt	r3, #65535	; 0xffff
    1bea:	429a      	cmp	r2, r3
    1bec:	d009      	beq.n	1c02 <TEE_AllocateOperation+0x8fa>
/home/wangzh/software/OP-TEE/optee_os/lib/libutee/tee_api_operations.c:347 (discriminator 1)
    1bee:	6b7a      	ldr	r2, [r7, #52]	; 0x34
    1bf0:	f04f 030a 	mov.w	r3, #10
    1bf4:	f6cf 73ff 	movt	r3, #65535	; 0xffff
    1bf8:	429a      	cmp	r2, r3
    1bfa:	d002      	beq.n	1c02 <TEE_AllocateOperation+0x8fa>
/home/wangzh/software/OP-TEE/optee_os/lib/libutee/tee_api_operations.c:349
    1bfc:	6b78      	ldr	r0, [r7, #52]	; 0x34
    1bfe:	f009 f93e 	bl	ae7e <TEE_Panic>
/home/wangzh/software/OP-TEE/optee_os/lib/libutee/tee_api_operations.c:350
    1c02:	69bb      	ldr	r3, [r7, #24]
    1c04:	2b00      	cmp	r3, #0
    1c06:	d019      	beq.n	1c3c <TEE_AllocateOperation+0x934>
/home/wangzh/software/OP-TEE/optee_os/lib/libutee/tee_api_operations.c:351
    1c08:	69bb      	ldr	r3, [r7, #24]
    1c0a:	6bdb      	ldr	r3, [r3, #60]	; 0x3c
    1c0c:	2b00      	cmp	r3, #0
    1c0e:	d003      	beq.n	1c18 <TEE_AllocateOperation+0x910>
/home/wangzh/software/OP-TEE/optee_os/lib/libutee/tee_api_operations.c:352
    1c10:	69b8      	ldr	r0, [r7, #24]
    1c12:	f000 f819 	bl	1c48 <TEE_FreeOperation>
    1c16:	e011      	b.n	1c3c <TEE_AllocateOperation+0x934>
/home/wangzh/software/OP-TEE/optee_os/lib/libutee/tee_api_operations.c:354
    1c18:	69bb      	ldr	r3, [r7, #24]
    1c1a:	6adb      	ldr	r3, [r3, #44]	; 0x2c
    1c1c:	4618      	mov	r0, r3
    1c1e:	f003 fe55 	bl	58cc <TEE_Free>
/home/wangzh/software/OP-TEE/optee_os/lib/libutee/tee_api_operations.c:355
    1c22:	69bb      	ldr	r3, [r7, #24]
    1c24:	6a1b      	ldr	r3, [r3, #32]
    1c26:	4618      	mov	r0, r3
    1c28:	f009 fba3 	bl	b372 <TEE_FreeTransientObject>
/home/wangzh/software/OP-TEE/optee_os/lib/libutee/tee_api_operations.c:356
    1c2c:	69bb      	ldr	r3, [r7, #24]
    1c2e:	6a5b      	ldr	r3, [r3, #36]	; 0x24
    1c30:	4618      	mov	r0, r3
    1c32:	f009 fb9e 	bl	b372 <TEE_FreeTransientObject>
/home/wangzh/software/OP-TEE/optee_os/lib/libutee/tee_api_operations.c:357
    1c36:	69b8      	ldr	r0, [r7, #24]
    1c38:	f003 fe48 	bl	58cc <TEE_Free>
/home/wangzh/software/OP-TEE/optee_os/lib/libutee/tee_api_operations.c:362
    1c3c:	6b7b      	ldr	r3, [r7, #52]	; 0x34
/home/wangzh/software/OP-TEE/optee_os/lib/libutee/tee_api_operations.c:363
    1c3e:	4618      	mov	r0, r3
    1c40:	f107 0738 	add.w	r7, r7, #56	; 0x38
    1c44:	46bd      	mov	sp, r7
    1c46:	bd80      	pop	{r7, pc}

00001c48 <TEE_FreeOperation>:
TEE_FreeOperation():
/home/wangzh/software/OP-TEE/optee_os/lib/libutee/tee_api_operations.c:366
    1c48:	e96d 7e02 	strd	r7, lr, [sp, #-8]!
    1c4c:	b084      	sub	sp, #16
    1c4e:	af00      	add	r7, sp, #0
    1c50:	6078      	str	r0, [r7, #4]
/home/wangzh/software/OP-TEE/optee_os/lib/libutee/tee_api_operations.c:369
    1c52:	687b      	ldr	r3, [r7, #4]
    1c54:	2b00      	cmp	r3, #0
    1c56:	d103      	bne.n	1c60 <TEE_FreeOperation+0x18>
/home/wangzh/software/OP-TEE/optee_os/lib/libutee/tee_api_operations.c:370
    1c58:	f04f 0000 	mov.w	r0, #0
    1c5c:	f009 f90f 	bl	ae7e <TEE_Panic>
/home/wangzh/software/OP-TEE/optee_os/lib/libutee/tee_api_operations.c:377
    1c60:	687b      	ldr	r3, [r7, #4]
    1c62:	6bdb      	ldr	r3, [r3, #60]	; 0x3c
    1c64:	4618      	mov	r0, r3
    1c66:	f002 ebac 	blx	43c0 <utee_cryp_state_free>
    1c6a:	60f8      	str	r0, [r7, #12]
/home/wangzh/software/OP-TEE/optee_os/lib/libutee/tee_api_operations.c:378
    1c6c:	68fb      	ldr	r3, [r7, #12]
    1c6e:	2b00      	cmp	r3, #0
    1c70:	d002      	beq.n	1c78 <TEE_FreeOperation+0x30>
/home/wangzh/software/OP-TEE/optee_os/lib/libutee/tee_api_operations.c:379
    1c72:	68f8      	ldr	r0, [r7, #12]
    1c74:	f009 f903 	bl	ae7e <TEE_Panic>
/home/wangzh/software/OP-TEE/optee_os/lib/libutee/tee_api_operations.c:381
    1c78:	687b      	ldr	r3, [r7, #4]
    1c7a:	6adb      	ldr	r3, [r3, #44]	; 0x2c
    1c7c:	4618      	mov	r0, r3
    1c7e:	f003 fe25 	bl	58cc <TEE_Free>
/home/wangzh/software/OP-TEE/optee_os/lib/libutee/tee_api_operations.c:382
    1c82:	6878      	ldr	r0, [r7, #4]
    1c84:	f003 fe22 	bl	58cc <TEE_Free>
/home/wangzh/software/OP-TEE/optee_os/lib/libutee/tee_api_operations.c:383
    1c88:	bf00      	nop
    1c8a:	f107 0710 	add.w	r7, r7, #16
    1c8e:	46bd      	mov	sp, r7
    1c90:	bd80      	pop	{r7, pc}

00001c92 <TEE_GetOperationInfo>:
TEE_GetOperationInfo():
/home/wangzh/software/OP-TEE/optee_os/lib/libutee/tee_api_operations.c:387
    1c92:	e96d 7e02 	strd	r7, lr, [sp, #-8]!
    1c96:	b082      	sub	sp, #8
    1c98:	af00      	add	r7, sp, #0
    1c9a:	6078      	str	r0, [r7, #4]
    1c9c:	6039      	str	r1, [r7, #0]
/home/wangzh/software/OP-TEE/optee_os/lib/libutee/tee_api_operations.c:388
    1c9e:	687b      	ldr	r3, [r7, #4]
    1ca0:	2b00      	cmp	r3, #0
    1ca2:	d103      	bne.n	1cac <TEE_GetOperationInfo+0x1a>
/home/wangzh/software/OP-TEE/optee_os/lib/libutee/tee_api_operations.c:389
    1ca4:	f04f 0000 	mov.w	r0, #0
    1ca8:	f009 f8e9 	bl	ae7e <TEE_Panic>
/home/wangzh/software/OP-TEE/optee_os/lib/libutee/tee_api_operations.c:391
    1cac:	683b      	ldr	r3, [r7, #0]
    1cae:	2b00      	cmp	r3, #0
    1cb0:	d103      	bne.n	1cba <TEE_GetOperationInfo+0x28>
/home/wangzh/software/OP-TEE/optee_os/lib/libutee/tee_api_operations.c:392
    1cb2:	f04f 0000 	mov.w	r0, #0
    1cb6:	f009 f8e2 	bl	ae7e <TEE_Panic>
/home/wangzh/software/OP-TEE/optee_os/lib/libutee/tee_api_operations.c:394
    1cba:	683b      	ldr	r3, [r7, #0]
    1cbc:	687a      	ldr	r2, [r7, #4]
    1cbe:	e9d2 0100 	ldrd	r0, r1, [r2]
    1cc2:	e9c3 0100 	strd	r0, r1, [r3]
    1cc6:	e9d2 0102 	ldrd	r0, r1, [r2, #8]
    1cca:	e9c3 0102 	strd	r0, r1, [r3, #8]
    1cce:	e9d2 0104 	ldrd	r0, r1, [r2, #16]
    1cd2:	e9c3 0104 	strd	r0, r1, [r3, #16]
    1cd6:	e9d2 1206 	ldrd	r1, r2, [r2, #24]
    1cda:	e9c3 1206 	strd	r1, r2, [r3, #24]
/home/wangzh/software/OP-TEE/optee_os/lib/libutee/tee_api_operations.c:395
    1cde:	bf00      	nop
    1ce0:	f107 0708 	add.w	r7, r7, #8
    1ce4:	46bd      	mov	sp, r7
    1ce6:	bd80      	pop	{r7, pc}

00001ce8 <TEE_GetOperationInfoMultiple>:
TEE_GetOperationInfoMultiple():
/home/wangzh/software/OP-TEE/optee_os/lib/libutee/tee_api_operations.c:400
    1ce8:	e96d 7e02 	strd	r7, lr, [sp, #-8]!
    1cec:	b096      	sub	sp, #88	; 0x58
    1cee:	af00      	add	r7, sp, #0
    1cf0:	60f8      	str	r0, [r7, #12]
    1cf2:	60b9      	str	r1, [r7, #8]
    1cf4:	607a      	str	r2, [r7, #4]
/home/wangzh/software/OP-TEE/optee_os/lib/libutee/tee_api_operations.c:401
    1cf6:	f04f 0300 	mov.w	r3, #0
    1cfa:	657b      	str	r3, [r7, #84]	; 0x54
/home/wangzh/software/OP-TEE/optee_os/lib/libutee/tee_api_operations.c:407
    1cfc:	68fb      	ldr	r3, [r7, #12]
    1cfe:	2b00      	cmp	r3, #0
    1d00:	d105      	bne.n	1d0e <TEE_GetOperationInfoMultiple+0x26>
/home/wangzh/software/OP-TEE/optee_os/lib/libutee/tee_api_operations.c:408
    1d02:	f04f 0306 	mov.w	r3, #6
    1d06:	f6cf 73ff 	movt	r3, #65535	; 0xffff
    1d0a:	657b      	str	r3, [r7, #84]	; 0x54
/home/wangzh/software/OP-TEE/optee_os/lib/libutee/tee_api_operations.c:409
    1d0c:	e0a9      	b.n	1e62 <TEE_GetOperationInfoMultiple+0x17a>
/home/wangzh/software/OP-TEE/optee_os/lib/libutee/tee_api_operations.c:412
    1d0e:	68bb      	ldr	r3, [r7, #8]
    1d10:	2b00      	cmp	r3, #0
    1d12:	d105      	bne.n	1d20 <TEE_GetOperationInfoMultiple+0x38>
/home/wangzh/software/OP-TEE/optee_os/lib/libutee/tee_api_operations.c:413
    1d14:	f04f 0306 	mov.w	r3, #6
    1d18:	f6cf 73ff 	movt	r3, #65535	; 0xffff
    1d1c:	657b      	str	r3, [r7, #84]	; 0x54
/home/wangzh/software/OP-TEE/optee_os/lib/libutee/tee_api_operations.c:414
    1d1e:	e0a0      	b.n	1e62 <TEE_GetOperationInfoMultiple+0x17a>
/home/wangzh/software/OP-TEE/optee_os/lib/libutee/tee_api_operations.c:417
    1d20:	687b      	ldr	r3, [r7, #4]
    1d22:	2b00      	cmp	r3, #0
    1d24:	d105      	bne.n	1d32 <TEE_GetOperationInfoMultiple+0x4a>
/home/wangzh/software/OP-TEE/optee_os/lib/libutee/tee_api_operations.c:418
    1d26:	f04f 0306 	mov.w	r3, #6
    1d2a:	f6cf 73ff 	movt	r3, #65535	; 0xffff
    1d2e:	657b      	str	r3, [r7, #84]	; 0x54
/home/wangzh/software/OP-TEE/optee_os/lib/libutee/tee_api_operations.c:419
    1d30:	e097      	b.n	1e62 <TEE_GetOperationInfoMultiple+0x17a>
/home/wangzh/software/OP-TEE/optee_os/lib/libutee/tee_api_operations.c:422
    1d32:	687b      	ldr	r3, [r7, #4]
    1d34:	681b      	ldr	r3, [r3, #0]
    1d36:	f1a3 0320 	sub.w	r3, r3, #32
    1d3a:	ea4f 03d3 	mov.w	r3, r3, lsr #3
    1d3e:	64fb      	str	r3, [r7, #76]	; 0x4c
/home/wangzh/software/OP-TEE/optee_os/lib/libutee/tee_api_operations.c:425
    1d40:	6cfb      	ldr	r3, [r7, #76]	; 0x4c
    1d42:	2b02      	cmp	r3, #2
    1d44:	d905      	bls.n	1d52 <TEE_GetOperationInfoMultiple+0x6a>
/home/wangzh/software/OP-TEE/optee_os/lib/libutee/tee_api_operations.c:426
    1d46:	f04f 0306 	mov.w	r3, #6
    1d4a:	f6cf 73ff 	movt	r3, #65535	; 0xffff
    1d4e:	657b      	str	r3, [r7, #84]	; 0x54
/home/wangzh/software/OP-TEE/optee_os/lib/libutee/tee_api_operations.c:427
    1d50:	e087      	b.n	1e62 <TEE_GetOperationInfoMultiple+0x17a>
/home/wangzh/software/OP-TEE/optee_os/lib/libutee/tee_api_operations.c:431
    1d52:	68fb      	ldr	r3, [r7, #12]
    1d54:	69db      	ldr	r3, [r3, #28]
    1d56:	f403 2300 	and.w	r3, r3, #524288	; 0x80000
    1d5a:	2b00      	cmp	r3, #0
    1d5c:	d008      	beq.n	1d70 <TEE_GetOperationInfoMultiple+0x88>
/home/wangzh/software/OP-TEE/optee_os/lib/libutee/tee_api_operations.c:432
    1d5e:	6cfb      	ldr	r3, [r7, #76]	; 0x4c
    1d60:	2b02      	cmp	r3, #2
    1d62:	d005      	beq.n	1d70 <TEE_GetOperationInfoMultiple+0x88>
/home/wangzh/software/OP-TEE/optee_os/lib/libutee/tee_api_operations.c:434
    1d64:	f04f 0310 	mov.w	r3, #16
    1d68:	f6cf 73ff 	movt	r3, #65535	; 0xffff
    1d6c:	657b      	str	r3, [r7, #84]	; 0x54
/home/wangzh/software/OP-TEE/optee_os/lib/libutee/tee_api_operations.c:435
    1d6e:	e078      	b.n	1e62 <TEE_GetOperationInfoMultiple+0x17a>
/home/wangzh/software/OP-TEE/optee_os/lib/libutee/tee_api_operations.c:439
    1d70:	f04f 0300 	mov.w	r3, #0
    1d74:	653b      	str	r3, [r7, #80]	; 0x50
    1d76:	e015      	b.n	1da4 <TEE_GetOperationInfoMultiple+0xbc>
/home/wangzh/software/OP-TEE/optee_os/lib/libutee/tee_api_operations.c:440 (discriminator 3)
    1d78:	68bb      	ldr	r3, [r7, #8]
    1d7a:	6d3a      	ldr	r2, [r7, #80]	; 0x50
    1d7c:	f102 0204 	add.w	r2, r2, #4
    1d80:	f04f 0100 	mov.w	r1, #0
    1d84:	f843 1032 	str.w	r1, [r3, r2, lsl #3]
/home/wangzh/software/OP-TEE/optee_os/lib/libutee/tee_api_operations.c:441 (discriminator 3)
    1d88:	68ba      	ldr	r2, [r7, #8]
    1d8a:	6d3b      	ldr	r3, [r7, #80]	; 0x50
    1d8c:	f103 0304 	add.w	r3, r3, #4
    1d90:	ea4f 03c3 	mov.w	r3, r3, lsl #3
    1d94:	4413      	add	r3, r2
    1d96:	f04f 0200 	mov.w	r2, #0
    1d9a:	605a      	str	r2, [r3, #4]
/home/wangzh/software/OP-TEE/optee_os/lib/libutee/tee_api_operations.c:439 (discriminator 3)
    1d9c:	6d3b      	ldr	r3, [r7, #80]	; 0x50
    1d9e:	f103 0301 	add.w	r3, r3, #1
    1da2:	653b      	str	r3, [r7, #80]	; 0x50
/home/wangzh/software/OP-TEE/optee_os/lib/libutee/tee_api_operations.c:439 (discriminator 1)
    1da4:	6d3a      	ldr	r2, [r7, #80]	; 0x50
    1da6:	6cfb      	ldr	r3, [r7, #76]	; 0x4c
    1da8:	429a      	cmp	r2, r3
    1daa:	d3e5      	bcc.n	1d78 <TEE_GetOperationInfoMultiple+0x90>
/home/wangzh/software/OP-TEE/optee_os/lib/libutee/tee_api_operations.c:444
    1dac:	6cfb      	ldr	r3, [r7, #76]	; 0x4c
    1dae:	2b02      	cmp	r3, #2
    1db0:	d112      	bne.n	1dd8 <TEE_GetOperationInfoMultiple+0xf0>
/home/wangzh/software/OP-TEE/optee_os/lib/libutee/tee_api_operations.c:445
    1db2:	68fb      	ldr	r3, [r7, #12]
    1db4:	6a5b      	ldr	r3, [r3, #36]	; 0x24
    1db6:	f107 0214 	add.w	r2, r7, #20
    1dba:	4611      	mov	r1, r2
    1dbc:	4618      	mov	r0, r3
    1dbe:	f009 f94d 	bl	b05c <TEE_GetObjectInfo1>
    1dc2:	6578      	str	r0, [r7, #84]	; 0x54
/home/wangzh/software/OP-TEE/optee_os/lib/libutee/tee_api_operations.c:447
    1dc4:	6d7b      	ldr	r3, [r7, #84]	; 0x54
    1dc6:	2b00      	cmp	r3, #0
    1dc8:	d148      	bne.n	1e5c <TEE_GetOperationInfoMultiple+0x174>
/home/wangzh/software/OP-TEE/optee_os/lib/libutee/tee_api_operations.c:451
    1dca:	69ba      	ldr	r2, [r7, #24]
/home/wangzh/software/OP-TEE/optee_os/lib/libutee/tee_api_operations.c:450
    1dcc:	68bb      	ldr	r3, [r7, #8]
    1dce:	629a      	str	r2, [r3, #40]	; 0x28
/home/wangzh/software/OP-TEE/optee_os/lib/libutee/tee_api_operations.c:453
    1dd0:	68fb      	ldr	r3, [r7, #12]
    1dd2:	699a      	ldr	r2, [r3, #24]
/home/wangzh/software/OP-TEE/optee_os/lib/libutee/tee_api_operations.c:452
    1dd4:	68bb      	ldr	r3, [r7, #8]
    1dd6:	62da      	str	r2, [r3, #44]	; 0x2c
/home/wangzh/software/OP-TEE/optee_os/lib/libutee/tee_api_operations.c:456
    1dd8:	6cfb      	ldr	r3, [r7, #76]	; 0x4c
    1dda:	2b00      	cmp	r3, #0
    1ddc:	d01e      	beq.n	1e1c <TEE_GetOperationInfoMultiple+0x134>
/home/wangzh/software/OP-TEE/optee_os/lib/libutee/tee_api_operations.c:457
    1dde:	68fb      	ldr	r3, [r7, #12]
    1de0:	6a1b      	ldr	r3, [r3, #32]
    1de2:	f107 0230 	add.w	r2, r7, #48	; 0x30
    1de6:	4611      	mov	r1, r2
    1de8:	4618      	mov	r0, r3
    1dea:	f009 f937 	bl	b05c <TEE_GetObjectInfo1>
    1dee:	6578      	str	r0, [r7, #84]	; 0x54
/home/wangzh/software/OP-TEE/optee_os/lib/libutee/tee_api_operations.c:459
    1df0:	6d7b      	ldr	r3, [r7, #84]	; 0x54
    1df2:	2b00      	cmp	r3, #0
    1df4:	d00b      	beq.n	1e0e <TEE_GetOperationInfoMultiple+0x126>
/home/wangzh/software/OP-TEE/optee_os/lib/libutee/tee_api_operations.c:460
    1df6:	6cfb      	ldr	r3, [r7, #76]	; 0x4c
    1df8:	2b02      	cmp	r3, #2
    1dfa:	d131      	bne.n	1e60 <TEE_GetOperationInfoMultiple+0x178>
/home/wangzh/software/OP-TEE/optee_os/lib/libutee/tee_api_operations.c:462
    1dfc:	68bb      	ldr	r3, [r7, #8]
    1dfe:	f04f 0200 	mov.w	r2, #0
    1e02:	629a      	str	r2, [r3, #40]	; 0x28
/home/wangzh/software/OP-TEE/optee_os/lib/libutee/tee_api_operations.c:464
    1e04:	68bb      	ldr	r3, [r7, #8]
    1e06:	f04f 0200 	mov.w	r2, #0
    1e0a:	62da      	str	r2, [r3, #44]	; 0x2c
/home/wangzh/software/OP-TEE/optee_os/lib/libutee/tee_api_operations.c:466
    1e0c:	e028      	b.n	1e60 <TEE_GetOperationInfoMultiple+0x178>
/home/wangzh/software/OP-TEE/optee_os/lib/libutee/tee_api_operations.c:470
    1e0e:	6b7a      	ldr	r2, [r7, #52]	; 0x34
/home/wangzh/software/OP-TEE/optee_os/lib/libutee/tee_api_operations.c:469
    1e10:	68bb      	ldr	r3, [r7, #8]
    1e12:	621a      	str	r2, [r3, #32]
/home/wangzh/software/OP-TEE/optee_os/lib/libutee/tee_api_operations.c:472
    1e14:	68fb      	ldr	r3, [r7, #12]
    1e16:	699a      	ldr	r2, [r3, #24]
/home/wangzh/software/OP-TEE/optee_os/lib/libutee/tee_api_operations.c:471
    1e18:	68bb      	ldr	r3, [r7, #8]
    1e1a:	625a      	str	r2, [r3, #36]	; 0x24
/home/wangzh/software/OP-TEE/optee_os/lib/libutee/tee_api_operations.c:476
    1e1c:	68fb      	ldr	r3, [r7, #12]
    1e1e:	681a      	ldr	r2, [r3, #0]
    1e20:	68bb      	ldr	r3, [r7, #8]
    1e22:	601a      	str	r2, [r3, #0]
/home/wangzh/software/OP-TEE/optee_os/lib/libutee/tee_api_operations.c:477
    1e24:	68fb      	ldr	r3, [r7, #12]
    1e26:	685a      	ldr	r2, [r3, #4]
    1e28:	68bb      	ldr	r3, [r7, #8]
    1e2a:	605a      	str	r2, [r3, #4]
/home/wangzh/software/OP-TEE/optee_os/lib/libutee/tee_api_operations.c:478
    1e2c:	68fb      	ldr	r3, [r7, #12]
    1e2e:	689a      	ldr	r2, [r3, #8]
    1e30:	68bb      	ldr	r3, [r7, #8]
    1e32:	609a      	str	r2, [r3, #8]
/home/wangzh/software/OP-TEE/optee_os/lib/libutee/tee_api_operations.c:479
    1e34:	68fb      	ldr	r3, [r7, #12]
    1e36:	68da      	ldr	r2, [r3, #12]
    1e38:	68bb      	ldr	r3, [r7, #8]
    1e3a:	60da      	str	r2, [r3, #12]
/home/wangzh/software/OP-TEE/optee_os/lib/libutee/tee_api_operations.c:480
    1e3c:	68fb      	ldr	r3, [r7, #12]
    1e3e:	691a      	ldr	r2, [r3, #16]
    1e40:	68bb      	ldr	r3, [r7, #8]
    1e42:	611a      	str	r2, [r3, #16]
/home/wangzh/software/OP-TEE/optee_os/lib/libutee/tee_api_operations.c:481
    1e44:	68fb      	ldr	r3, [r7, #12]
    1e46:	69da      	ldr	r2, [r3, #28]
    1e48:	68bb      	ldr	r3, [r7, #8]
    1e4a:	615a      	str	r2, [r3, #20]
/home/wangzh/software/OP-TEE/optee_os/lib/libutee/tee_api_operations.c:482
    1e4c:	68fb      	ldr	r3, [r7, #12]
    1e4e:	6a9a      	ldr	r2, [r3, #40]	; 0x28
    1e50:	68bb      	ldr	r3, [r7, #8]
    1e52:	619a      	str	r2, [r3, #24]
/home/wangzh/software/OP-TEE/optee_os/lib/libutee/tee_api_operations.c:483
    1e54:	68bb      	ldr	r3, [r7, #8]
    1e56:	6cfa      	ldr	r2, [r7, #76]	; 0x4c
    1e58:	61da      	str	r2, [r3, #28]
    1e5a:	e002      	b.n	1e62 <TEE_GetOperationInfoMultiple+0x17a>
/home/wangzh/software/OP-TEE/optee_os/lib/libutee/tee_api_operations.c:448
    1e5c:	bf00      	nop
    1e5e:	e000      	b.n	1e62 <TEE_GetOperationInfoMultiple+0x17a>
/home/wangzh/software/OP-TEE/optee_os/lib/libutee/tee_api_operations.c:466
    1e60:	bf00      	nop
/home/wangzh/software/OP-TEE/optee_os/lib/libutee/tee_api_operations.c:486
    1e62:	6d7b      	ldr	r3, [r7, #84]	; 0x54
    1e64:	2b00      	cmp	r3, #0
    1e66:	d009      	beq.n	1e7c <TEE_GetOperationInfoMultiple+0x194>
/home/wangzh/software/OP-TEE/optee_os/lib/libutee/tee_api_operations.c:486 (discriminator 1)
    1e68:	6d7a      	ldr	r2, [r7, #84]	; 0x54
    1e6a:	f04f 0310 	mov.w	r3, #16
    1e6e:	f6cf 73ff 	movt	r3, #65535	; 0xffff
    1e72:	429a      	cmp	r2, r3
    1e74:	d002      	beq.n	1e7c <TEE_GetOperationInfoMultiple+0x194>
/home/wangzh/software/OP-TEE/optee_os/lib/libutee/tee_api_operations.c:488
    1e76:	6d78      	ldr	r0, [r7, #84]	; 0x54
    1e78:	f009 f801 	bl	ae7e <TEE_Panic>
/home/wangzh/software/OP-TEE/optee_os/lib/libutee/tee_api_operations.c:490
    1e7c:	6d7b      	ldr	r3, [r7, #84]	; 0x54
/home/wangzh/software/OP-TEE/optee_os/lib/libutee/tee_api_operations.c:491
    1e7e:	4618      	mov	r0, r3
    1e80:	f107 0758 	add.w	r7, r7, #88	; 0x58
    1e84:	46bd      	mov	sp, r7
    1e86:	bd80      	pop	{r7, pc}

00001e88 <TEE_ResetOperation>:
TEE_ResetOperation():
/home/wangzh/software/OP-TEE/optee_os/lib/libutee/tee_api_operations.c:494
    1e88:	e96d 7e02 	strd	r7, lr, [sp, #-8]!
    1e8c:	b084      	sub	sp, #16
    1e8e:	af00      	add	r7, sp, #0
    1e90:	6078      	str	r0, [r7, #4]
/home/wangzh/software/OP-TEE/optee_os/lib/libutee/tee_api_operations.c:497
    1e92:	687b      	ldr	r3, [r7, #4]
    1e94:	2b00      	cmp	r3, #0
    1e96:	d103      	bne.n	1ea0 <TEE_ResetOperation+0x18>
/home/wangzh/software/OP-TEE/optee_os/lib/libutee/tee_api_operations.c:498
    1e98:	f04f 0000 	mov.w	r0, #0
    1e9c:	f008 ffef 	bl	ae7e <TEE_Panic>
/home/wangzh/software/OP-TEE/optee_os/lib/libutee/tee_api_operations.c:500
    1ea0:	687b      	ldr	r3, [r7, #4]
    1ea2:	69db      	ldr	r3, [r3, #28]
    1ea4:	f403 2380 	and.w	r3, r3, #262144	; 0x40000
    1ea8:	2b00      	cmp	r3, #0
    1eaa:	d103      	bne.n	1eb4 <TEE_ResetOperation+0x2c>
/home/wangzh/software/OP-TEE/optee_os/lib/libutee/tee_api_operations.c:501
    1eac:	f04f 0000 	mov.w	r0, #0
    1eb0:	f008 ffe5 	bl	ae7e <TEE_Panic>
/home/wangzh/software/OP-TEE/optee_os/lib/libutee/tee_api_operations.c:503
    1eb4:	687b      	ldr	r3, [r7, #4]
    1eb6:	f04f 0200 	mov.w	r2, #0
    1eba:	629a      	str	r2, [r3, #40]	; 0x28
/home/wangzh/software/OP-TEE/optee_os/lib/libutee/tee_api_operations.c:505
    1ebc:	687b      	ldr	r3, [r7, #4]
    1ebe:	685b      	ldr	r3, [r3, #4]
    1ec0:	2b05      	cmp	r3, #5
    1ec2:	d116      	bne.n	1ef2 <TEE_ResetOperation+0x6a>
/home/wangzh/software/OP-TEE/optee_os/lib/libutee/tee_api_operations.c:506
    1ec4:	687b      	ldr	r3, [r7, #4]
    1ec6:	6bdb      	ldr	r3, [r3, #60]	; 0x3c
    1ec8:	f04f 0200 	mov.w	r2, #0
    1ecc:	f04f 0100 	mov.w	r1, #0
    1ed0:	4618      	mov	r0, r3
    1ed2:	f002 ea80 	blx	43d4 <utee_hash_init>
    1ed6:	60f8      	str	r0, [r7, #12]
/home/wangzh/software/OP-TEE/optee_os/lib/libutee/tee_api_operations.c:507
    1ed8:	68fb      	ldr	r3, [r7, #12]
    1eda:	2b00      	cmp	r3, #0
    1edc:	d002      	beq.n	1ee4 <TEE_ResetOperation+0x5c>
/home/wangzh/software/OP-TEE/optee_os/lib/libutee/tee_api_operations.c:508
    1ede:	68f8      	ldr	r0, [r7, #12]
    1ee0:	f008 ffcd 	bl	ae7e <TEE_Panic>
/home/wangzh/software/OP-TEE/optee_os/lib/libutee/tee_api_operations.c:509
    1ee4:	687b      	ldr	r3, [r7, #4]
    1ee6:	69db      	ldr	r3, [r3, #28]
    1ee8:	f443 3200 	orr.w	r2, r3, #131072	; 0x20000
    1eec:	687b      	ldr	r3, [r7, #4]
    1eee:	61da      	str	r2, [r3, #28]
/home/wangzh/software/OP-TEE/optee_os/lib/libutee/tee_api_operations.c:513
    1ef0:	e005      	b.n	1efe <TEE_ResetOperation+0x76>
/home/wangzh/software/OP-TEE/optee_os/lib/libutee/tee_api_operations.c:511
    1ef2:	687b      	ldr	r3, [r7, #4]
    1ef4:	69db      	ldr	r3, [r3, #28]
    1ef6:	f423 3200 	bic.w	r2, r3, #131072	; 0x20000
    1efa:	687b      	ldr	r3, [r7, #4]
    1efc:	61da      	str	r2, [r3, #28]
/home/wangzh/software/OP-TEE/optee_os/lib/libutee/tee_api_operations.c:513
    1efe:	bf00      	nop
    1f00:	f107 0710 	add.w	r7, r7, #16
    1f04:	46bd      	mov	sp, r7
    1f06:	bd80      	pop	{r7, pc}

00001f08 <TEE_SetOperationKey>:
TEE_SetOperationKey():
/home/wangzh/software/OP-TEE/optee_os/lib/libutee/tee_api_operations.c:517
    1f08:	e96d 7e02 	strd	r7, lr, [sp, #-8]!
    1f0c:	b08c      	sub	sp, #48	; 0x30
    1f0e:	af00      	add	r7, sp, #0
    1f10:	6078      	str	r0, [r7, #4]
    1f12:	6039      	str	r1, [r7, #0]
/home/wangzh/software/OP-TEE/optee_os/lib/libutee/tee_api_operations.c:519
    1f14:	f04f 0300 	mov.w	r3, #0
    1f18:	62bb      	str	r3, [r7, #40]	; 0x28
/home/wangzh/software/OP-TEE/optee_os/lib/libutee/tee_api_operations.c:522
    1f1a:	687b      	ldr	r3, [r7, #4]
    1f1c:	2b00      	cmp	r3, #0
    1f1e:	d105      	bne.n	1f2c <TEE_SetOperationKey+0x24>
/home/wangzh/software/OP-TEE/optee_os/lib/libutee/tee_api_operations.c:523
    1f20:	f04f 0306 	mov.w	r3, #6
    1f24:	f6cf 73ff 	movt	r3, #65535	; 0xffff
    1f28:	62fb      	str	r3, [r7, #44]	; 0x2c
/home/wangzh/software/OP-TEE/optee_os/lib/libutee/tee_api_operations.c:524
    1f2a:	e075      	b.n	2018 <TEE_SetOperationKey+0x110>
/home/wangzh/software/OP-TEE/optee_os/lib/libutee/tee_api_operations.c:527
    1f2c:	687b      	ldr	r3, [r7, #4]
    1f2e:	6a9b      	ldr	r3, [r3, #40]	; 0x28
    1f30:	2b00      	cmp	r3, #0
    1f32:	d005      	beq.n	1f40 <TEE_SetOperationKey+0x38>
/home/wangzh/software/OP-TEE/optee_os/lib/libutee/tee_api_operations.c:528
    1f34:	f04f 0306 	mov.w	r3, #6
    1f38:	f6cf 73ff 	movt	r3, #65535	; 0xffff
    1f3c:	62fb      	str	r3, [r7, #44]	; 0x2c
/home/wangzh/software/OP-TEE/optee_os/lib/libutee/tee_api_operations.c:529
    1f3e:	e06b      	b.n	2018 <TEE_SetOperationKey+0x110>
/home/wangzh/software/OP-TEE/optee_os/lib/libutee/tee_api_operations.c:532
    1f40:	683b      	ldr	r3, [r7, #0]
    1f42:	2b00      	cmp	r3, #0
    1f44:	d10a      	bne.n	1f5c <TEE_SetOperationKey+0x54>
/home/wangzh/software/OP-TEE/optee_os/lib/libutee/tee_api_operations.c:534
    1f46:	687b      	ldr	r3, [r7, #4]
    1f48:	6a1b      	ldr	r3, [r3, #32]
    1f4a:	4618      	mov	r0, r3
    1f4c:	f009 fa41 	bl	b3d2 <TEE_ResetTransientObject>
/home/wangzh/software/OP-TEE/optee_os/lib/libutee/tee_api_operations.c:535
    1f50:	f04f 0306 	mov.w	r3, #6
    1f54:	f6cf 73ff 	movt	r3, #65535	; 0xffff
    1f58:	62fb      	str	r3, [r7, #44]	; 0x2c
/home/wangzh/software/OP-TEE/optee_os/lib/libutee/tee_api_operations.c:536
    1f5a:	e05d      	b.n	2018 <TEE_SetOperationKey+0x110>
/home/wangzh/software/OP-TEE/optee_os/lib/libutee/tee_api_operations.c:540
    1f5c:	687b      	ldr	r3, [r7, #4]
    1f5e:	685b      	ldr	r3, [r3, #4]
    1f60:	2b05      	cmp	r3, #5
    1f62:	d105      	bne.n	1f70 <TEE_SetOperationKey+0x68>
/home/wangzh/software/OP-TEE/optee_os/lib/libutee/tee_api_operations.c:541
    1f64:	f04f 0306 	mov.w	r3, #6
    1f68:	f6cf 73ff 	movt	r3, #65535	; 0xffff
    1f6c:	62fb      	str	r3, [r7, #44]	; 0x2c
/home/wangzh/software/OP-TEE/optee_os/lib/libutee/tee_api_operations.c:542
    1f6e:	e053      	b.n	2018 <TEE_SetOperationKey+0x110>
/home/wangzh/software/OP-TEE/optee_os/lib/libutee/tee_api_operations.c:546
    1f70:	687b      	ldr	r3, [r7, #4]
    1f72:	69db      	ldr	r3, [r3, #28]
    1f74:	f403 2300 	and.w	r3, r3, #524288	; 0x80000
    1f78:	2b00      	cmp	r3, #0
    1f7a:	d005      	beq.n	1f88 <TEE_SetOperationKey+0x80>
/home/wangzh/software/OP-TEE/optee_os/lib/libutee/tee_api_operations.c:548
    1f7c:	f04f 0306 	mov.w	r3, #6
    1f80:	f6cf 73ff 	movt	r3, #65535	; 0xffff
    1f84:	62fb      	str	r3, [r7, #44]	; 0x2c
/home/wangzh/software/OP-TEE/optee_os/lib/libutee/tee_api_operations.c:549
    1f86:	e047      	b.n	2018 <TEE_SetOperationKey+0x110>
/home/wangzh/software/OP-TEE/optee_os/lib/libutee/tee_api_operations.c:552
    1f88:	f107 030c 	add.w	r3, r7, #12
    1f8c:	4619      	mov	r1, r3
    1f8e:	6838      	ldr	r0, [r7, #0]
    1f90:	f009 f864 	bl	b05c <TEE_GetObjectInfo1>
    1f94:	62f8      	str	r0, [r7, #44]	; 0x2c
/home/wangzh/software/OP-TEE/optee_os/lib/libutee/tee_api_operations.c:554
    1f96:	6afb      	ldr	r3, [r7, #44]	; 0x2c
    1f98:	2b00      	cmp	r3, #0
    1f9a:	d13a      	bne.n	2012 <TEE_SetOperationKey+0x10a>
/home/wangzh/software/OP-TEE/optee_os/lib/libutee/tee_api_operations.c:558
    1f9c:	69ba      	ldr	r2, [r7, #24]
    1f9e:	687b      	ldr	r3, [r7, #4]
    1fa0:	699b      	ldr	r3, [r3, #24]
    1fa2:	ea02 0203 	and.w	r2, r2, r3
/home/wangzh/software/OP-TEE/optee_os/lib/libutee/tee_api_operations.c:559
    1fa6:	687b      	ldr	r3, [r7, #4]
    1fa8:	699b      	ldr	r3, [r3, #24]
/home/wangzh/software/OP-TEE/optee_os/lib/libutee/tee_api_operations.c:558
    1faa:	429a      	cmp	r2, r3
    1fac:	d005      	beq.n	1fba <TEE_SetOperationKey+0xb2>
/home/wangzh/software/OP-TEE/optee_os/lib/libutee/tee_api_operations.c:560
    1fae:	f04f 0306 	mov.w	r3, #6
    1fb2:	f6cf 73ff 	movt	r3, #65535	; 0xffff
    1fb6:	62fb      	str	r3, [r7, #44]	; 0x2c
/home/wangzh/software/OP-TEE/optee_os/lib/libutee/tee_api_operations.c:561
    1fb8:	e02e      	b.n	2018 <TEE_SetOperationKey+0x110>
/home/wangzh/software/OP-TEE/optee_os/lib/libutee/tee_api_operations.c:564
    1fba:	687b      	ldr	r3, [r7, #4]
    1fbc:	691a      	ldr	r2, [r3, #16]
    1fbe:	693b      	ldr	r3, [r7, #16]
    1fc0:	429a      	cmp	r2, r3
    1fc2:	d205      	bcs.n	1fd0 <TEE_SetOperationKey+0xc8>
/home/wangzh/software/OP-TEE/optee_os/lib/libutee/tee_api_operations.c:565
    1fc4:	f04f 0306 	mov.w	r3, #6
    1fc8:	f6cf 73ff 	movt	r3, #65535	; 0xffff
    1fcc:	62fb      	str	r3, [r7, #44]	; 0x2c
/home/wangzh/software/OP-TEE/optee_os/lib/libutee/tee_api_operations.c:566
    1fce:	e023      	b.n	2018 <TEE_SetOperationKey+0x110>
/home/wangzh/software/OP-TEE/optee_os/lib/libutee/tee_api_operations.c:569
    1fd0:	693b      	ldr	r3, [r7, #16]
    1fd2:	62bb      	str	r3, [r7, #40]	; 0x28
/home/wangzh/software/OP-TEE/optee_os/lib/libutee/tee_api_operations.c:571
    1fd4:	687b      	ldr	r3, [r7, #4]
    1fd6:	6a1b      	ldr	r3, [r3, #32]
    1fd8:	4618      	mov	r0, r3
    1fda:	f009 f9fa 	bl	b3d2 <TEE_ResetTransientObject>
/home/wangzh/software/OP-TEE/optee_os/lib/libutee/tee_api_operations.c:572
    1fde:	687b      	ldr	r3, [r7, #4]
    1fe0:	69db      	ldr	r3, [r3, #28]
    1fe2:	f423 2280 	bic.w	r2, r3, #262144	; 0x40000
    1fe6:	687b      	ldr	r3, [r7, #4]
    1fe8:	61da      	str	r2, [r3, #28]
/home/wangzh/software/OP-TEE/optee_os/lib/libutee/tee_api_operations.c:574
    1fea:	687b      	ldr	r3, [r7, #4]
    1fec:	6a1b      	ldr	r3, [r3, #32]
    1fee:	6839      	ldr	r1, [r7, #0]
    1ff0:	4618      	mov	r0, r3
    1ff2:	f009 fb27 	bl	b644 <TEE_CopyObjectAttributes1>
    1ff6:	62f8      	str	r0, [r7, #44]	; 0x2c
/home/wangzh/software/OP-TEE/optee_os/lib/libutee/tee_api_operations.c:575
    1ff8:	6afb      	ldr	r3, [r7, #44]	; 0x2c
    1ffa:	2b00      	cmp	r3, #0
    1ffc:	d10b      	bne.n	2016 <TEE_SetOperationKey+0x10e>
/home/wangzh/software/OP-TEE/optee_os/lib/libutee/tee_api_operations.c:578
    1ffe:	687b      	ldr	r3, [r7, #4]
    2000:	69db      	ldr	r3, [r3, #28]
    2002:	f443 2280 	orr.w	r2, r3, #262144	; 0x40000
    2006:	687b      	ldr	r3, [r7, #4]
    2008:	61da      	str	r2, [r3, #28]
/home/wangzh/software/OP-TEE/optee_os/lib/libutee/tee_api_operations.c:580
    200a:	687b      	ldr	r3, [r7, #4]
    200c:	6aba      	ldr	r2, [r7, #40]	; 0x28
    200e:	615a      	str	r2, [r3, #20]
    2010:	e002      	b.n	2018 <TEE_SetOperationKey+0x110>
/home/wangzh/software/OP-TEE/optee_os/lib/libutee/tee_api_operations.c:555
    2012:	bf00      	nop
    2014:	e000      	b.n	2018 <TEE_SetOperationKey+0x110>
/home/wangzh/software/OP-TEE/optee_os/lib/libutee/tee_api_operations.c:576
    2016:	bf00      	nop
/home/wangzh/software/OP-TEE/optee_os/lib/libutee/tee_api_operations.c:583
    2018:	6afb      	ldr	r3, [r7, #44]	; 0x2c
    201a:	2b00      	cmp	r3, #0
    201c:	d010      	beq.n	2040 <TEE_SetOperationKey+0x138>
/home/wangzh/software/OP-TEE/optee_os/lib/libutee/tee_api_operations.c:583 (discriminator 1)
    201e:	6afa      	ldr	r2, [r7, #44]	; 0x2c
    2020:	f04f 0301 	mov.w	r3, #1
    2024:	f2cf 0310 	movt	r3, #61456	; 0xf010
    2028:	429a      	cmp	r2, r3
    202a:	d009      	beq.n	2040 <TEE_SetOperationKey+0x138>
/home/wangzh/software/OP-TEE/optee_os/lib/libutee/tee_api_operations.c:584
    202c:	6afa      	ldr	r2, [r7, #44]	; 0x2c
    202e:	f04f 0303 	mov.w	r3, #3
    2032:	f2cf 0310 	movt	r3, #61456	; 0xf010
    2036:	429a      	cmp	r2, r3
    2038:	d002      	beq.n	2040 <TEE_SetOperationKey+0x138>
/home/wangzh/software/OP-TEE/optee_os/lib/libutee/tee_api_operations.c:586
    203a:	6af8      	ldr	r0, [r7, #44]	; 0x2c
    203c:	f008 ff1f 	bl	ae7e <TEE_Panic>
/home/wangzh/software/OP-TEE/optee_os/lib/libutee/tee_api_operations.c:588
    2040:	6afb      	ldr	r3, [r7, #44]	; 0x2c
/home/wangzh/software/OP-TEE/optee_os/lib/libutee/tee_api_operations.c:589
    2042:	4618      	mov	r0, r3
    2044:	f107 0730 	add.w	r7, r7, #48	; 0x30
    2048:	46bd      	mov	sp, r7
    204a:	bd80      	pop	{r7, pc}

0000204c <TEE_SetOperationKey2>:
TEE_SetOperationKey2():
/home/wangzh/software/OP-TEE/optee_os/lib/libutee/tee_api_operations.c:593
    204c:	e96d 7e02 	strd	r7, lr, [sp, #-8]!
    2050:	b094      	sub	sp, #80	; 0x50
    2052:	af00      	add	r7, sp, #0
    2054:	60f8      	str	r0, [r7, #12]
    2056:	60b9      	str	r1, [r7, #8]
    2058:	607a      	str	r2, [r7, #4]
/home/wangzh/software/OP-TEE/optee_os/lib/libutee/tee_api_operations.c:595
    205a:	f04f 0300 	mov.w	r3, #0
    205e:	64bb      	str	r3, [r7, #72]	; 0x48
/home/wangzh/software/OP-TEE/optee_os/lib/libutee/tee_api_operations.c:599
    2060:	68fb      	ldr	r3, [r7, #12]
    2062:	2b00      	cmp	r3, #0
    2064:	d105      	bne.n	2072 <TEE_SetOperationKey2+0x26>
/home/wangzh/software/OP-TEE/optee_os/lib/libutee/tee_api_operations.c:600
    2066:	f04f 0306 	mov.w	r3, #6
    206a:	f6cf 73ff 	movt	r3, #65535	; 0xffff
    206e:	64fb      	str	r3, [r7, #76]	; 0x4c
/home/wangzh/software/OP-TEE/optee_os/lib/libutee/tee_api_operations.c:601
    2070:	e0dc      	b.n	222c <TEE_SetOperationKey2+0x1e0>
/home/wangzh/software/OP-TEE/optee_os/lib/libutee/tee_api_operations.c:604
    2072:	68fb      	ldr	r3, [r7, #12]
    2074:	6a9b      	ldr	r3, [r3, #40]	; 0x28
    2076:	2b00      	cmp	r3, #0
    2078:	d005      	beq.n	2086 <TEE_SetOperationKey2+0x3a>
/home/wangzh/software/OP-TEE/optee_os/lib/libutee/tee_api_operations.c:605
    207a:	f04f 0306 	mov.w	r3, #6
    207e:	f6cf 73ff 	movt	r3, #65535	; 0xffff
    2082:	64fb      	str	r3, [r7, #76]	; 0x4c
/home/wangzh/software/OP-TEE/optee_os/lib/libutee/tee_api_operations.c:606
    2084:	e0d2      	b.n	222c <TEE_SetOperationKey2+0x1e0>
/home/wangzh/software/OP-TEE/optee_os/lib/libutee/tee_api_operations.c:613
    2086:	68bb      	ldr	r3, [r7, #8]
    2088:	2b00      	cmp	r3, #0
    208a:	d002      	beq.n	2092 <TEE_SetOperationKey2+0x46>
/home/wangzh/software/OP-TEE/optee_os/lib/libutee/tee_api_operations.c:613 (discriminator 1)
    208c:	687b      	ldr	r3, [r7, #4]
    208e:	2b00      	cmp	r3, #0
    2090:	d115      	bne.n	20be <TEE_SetOperationKey2+0x72>
/home/wangzh/software/OP-TEE/optee_os/lib/libutee/tee_api_operations.c:615
    2092:	68bb      	ldr	r3, [r7, #8]
    2094:	2b00      	cmp	r3, #0
    2096:	d104      	bne.n	20a2 <TEE_SetOperationKey2+0x56>
/home/wangzh/software/OP-TEE/optee_os/lib/libutee/tee_api_operations.c:616
    2098:	68fb      	ldr	r3, [r7, #12]
    209a:	6a1b      	ldr	r3, [r3, #32]
    209c:	4618      	mov	r0, r3
    209e:	f009 f998 	bl	b3d2 <TEE_ResetTransientObject>
/home/wangzh/software/OP-TEE/optee_os/lib/libutee/tee_api_operations.c:618
    20a2:	687b      	ldr	r3, [r7, #4]
    20a4:	2b00      	cmp	r3, #0
    20a6:	d104      	bne.n	20b2 <TEE_SetOperationKey2+0x66>
/home/wangzh/software/OP-TEE/optee_os/lib/libutee/tee_api_operations.c:619
    20a8:	68fb      	ldr	r3, [r7, #12]
    20aa:	6a5b      	ldr	r3, [r3, #36]	; 0x24
    20ac:	4618      	mov	r0, r3
    20ae:	f009 f990 	bl	b3d2 <TEE_ResetTransientObject>
/home/wangzh/software/OP-TEE/optee_os/lib/libutee/tee_api_operations.c:620
    20b2:	f04f 0306 	mov.w	r3, #6
    20b6:	f6cf 73ff 	movt	r3, #65535	; 0xffff
    20ba:	64fb      	str	r3, [r7, #76]	; 0x4c
/home/wangzh/software/OP-TEE/optee_os/lib/libutee/tee_api_operations.c:621
    20bc:	e0b6      	b.n	222c <TEE_SetOperationKey2+0x1e0>
/home/wangzh/software/OP-TEE/optee_os/lib/libutee/tee_api_operations.c:625
    20be:	68fb      	ldr	r3, [r7, #12]
    20c0:	685b      	ldr	r3, [r3, #4]
    20c2:	2b05      	cmp	r3, #5
    20c4:	d105      	bne.n	20d2 <TEE_SetOperationKey2+0x86>
/home/wangzh/software/OP-TEE/optee_os/lib/libutee/tee_api_operations.c:626
    20c6:	f04f 0306 	mov.w	r3, #6
    20ca:	f6cf 73ff 	movt	r3, #65535	; 0xffff
    20ce:	64fb      	str	r3, [r7, #76]	; 0x4c
/home/wangzh/software/OP-TEE/optee_os/lib/libutee/tee_api_operations.c:627
    20d0:	e0ac      	b.n	222c <TEE_SetOperationKey2+0x1e0>
/home/wangzh/software/OP-TEE/optee_os/lib/libutee/tee_api_operations.c:631
    20d2:	68fb      	ldr	r3, [r7, #12]
    20d4:	69db      	ldr	r3, [r3, #28]
    20d6:	f403 2300 	and.w	r3, r3, #524288	; 0x80000
    20da:	2b00      	cmp	r3, #0
    20dc:	d105      	bne.n	20ea <TEE_SetOperationKey2+0x9e>
/home/wangzh/software/OP-TEE/optee_os/lib/libutee/tee_api_operations.c:633
    20de:	f04f 0306 	mov.w	r3, #6
    20e2:	f6cf 73ff 	movt	r3, #65535	; 0xffff
    20e6:	64fb      	str	r3, [r7, #76]	; 0x4c
/home/wangzh/software/OP-TEE/optee_os/lib/libutee/tee_api_operations.c:634
    20e8:	e0a0      	b.n	222c <TEE_SetOperationKey2+0x1e0>
/home/wangzh/software/OP-TEE/optee_os/lib/libutee/tee_api_operations.c:637
    20ea:	f107 032c 	add.w	r3, r7, #44	; 0x2c
    20ee:	4619      	mov	r1, r3
    20f0:	68b8      	ldr	r0, [r7, #8]
    20f2:	f008 ffb3 	bl	b05c <TEE_GetObjectInfo1>
    20f6:	64f8      	str	r0, [r7, #76]	; 0x4c
/home/wangzh/software/OP-TEE/optee_os/lib/libutee/tee_api_operations.c:639
    20f8:	6cfb      	ldr	r3, [r7, #76]	; 0x4c
    20fa:	2b00      	cmp	r3, #0
    20fc:	f040 808f 	bne.w	221e <TEE_SetOperationKey2+0x1d2>
/home/wangzh/software/OP-TEE/optee_os/lib/libutee/tee_api_operations.c:643
    2100:	6bba      	ldr	r2, [r7, #56]	; 0x38
    2102:	68fb      	ldr	r3, [r7, #12]
    2104:	699b      	ldr	r3, [r3, #24]
    2106:	ea02 0203 	and.w	r2, r2, r3
/home/wangzh/software/OP-TEE/optee_os/lib/libutee/tee_api_operations.c:644
    210a:	68fb      	ldr	r3, [r7, #12]
    210c:	699b      	ldr	r3, [r3, #24]
/home/wangzh/software/OP-TEE/optee_os/lib/libutee/tee_api_operations.c:643
    210e:	429a      	cmp	r2, r3
    2110:	d005      	beq.n	211e <TEE_SetOperationKey2+0xd2>
/home/wangzh/software/OP-TEE/optee_os/lib/libutee/tee_api_operations.c:645
    2112:	f04f 0306 	mov.w	r3, #6
    2116:	f6cf 73ff 	movt	r3, #65535	; 0xffff
    211a:	64fb      	str	r3, [r7, #76]	; 0x4c
/home/wangzh/software/OP-TEE/optee_os/lib/libutee/tee_api_operations.c:646
    211c:	e086      	b.n	222c <TEE_SetOperationKey2+0x1e0>
/home/wangzh/software/OP-TEE/optee_os/lib/libutee/tee_api_operations.c:649
    211e:	f107 0310 	add.w	r3, r7, #16
    2122:	4619      	mov	r1, r3
    2124:	6878      	ldr	r0, [r7, #4]
    2126:	f008 ff99 	bl	b05c <TEE_GetObjectInfo1>
    212a:	64f8      	str	r0, [r7, #76]	; 0x4c
/home/wangzh/software/OP-TEE/optee_os/lib/libutee/tee_api_operations.c:651
    212c:	6cfb      	ldr	r3, [r7, #76]	; 0x4c
    212e:	2b00      	cmp	r3, #0
    2130:	d00c      	beq.n	214c <TEE_SetOperationKey2+0x100>
/home/wangzh/software/OP-TEE/optee_os/lib/libutee/tee_api_operations.c:652
    2132:	6cfa      	ldr	r2, [r7, #76]	; 0x4c
    2134:	f04f 0301 	mov.w	r3, #1
    2138:	f2cf 0310 	movt	r3, #61456	; 0xf010
    213c:	429a      	cmp	r2, r3
    213e:	d170      	bne.n	2222 <TEE_SetOperationKey2+0x1d6>
/home/wangzh/software/OP-TEE/optee_os/lib/libutee/tee_api_operations.c:653
    2140:	f04f 0302 	mov.w	r3, #2
    2144:	f2cf 0310 	movt	r3, #61456	; 0xf010
    2148:	64fb      	str	r3, [r7, #76]	; 0x4c
/home/wangzh/software/OP-TEE/optee_os/lib/libutee/tee_api_operations.c:654
    214a:	e06a      	b.n	2222 <TEE_SetOperationKey2+0x1d6>
/home/wangzh/software/OP-TEE/optee_os/lib/libutee/tee_api_operations.c:658
    214c:	69fa      	ldr	r2, [r7, #28]
    214e:	68fb      	ldr	r3, [r7, #12]
    2150:	699b      	ldr	r3, [r3, #24]
    2152:	ea02 0203 	and.w	r2, r2, r3
/home/wangzh/software/OP-TEE/optee_os/lib/libutee/tee_api_operations.c:659
    2156:	68fb      	ldr	r3, [r7, #12]
    2158:	699b      	ldr	r3, [r3, #24]
/home/wangzh/software/OP-TEE/optee_os/lib/libutee/tee_api_operations.c:658
    215a:	429a      	cmp	r2, r3
    215c:	d005      	beq.n	216a <TEE_SetOperationKey2+0x11e>
/home/wangzh/software/OP-TEE/optee_os/lib/libutee/tee_api_operations.c:660
    215e:	f04f 0306 	mov.w	r3, #6
    2162:	f6cf 73ff 	movt	r3, #65535	; 0xffff
    2166:	64fb      	str	r3, [r7, #76]	; 0x4c
/home/wangzh/software/OP-TEE/optee_os/lib/libutee/tee_api_operations.c:661
    2168:	e060      	b.n	222c <TEE_SetOperationKey2+0x1e0>
/home/wangzh/software/OP-TEE/optee_os/lib/libutee/tee_api_operations.c:668
    216a:	68fb      	ldr	r3, [r7, #12]
    216c:	681a      	ldr	r2, [r3, #0]
    216e:	f44f 6382 	mov.w	r3, #1040	; 0x410
    2172:	f2c1 0300 	movt	r3, #4096	; 0x1000
    2176:	429a      	cmp	r2, r3
    2178:	d109      	bne.n	218e <TEE_SetOperationKey2+0x142>
/home/wangzh/software/OP-TEE/optee_os/lib/libutee/tee_api_operations.c:669 (discriminator 1)
    217a:	6b3a      	ldr	r2, [r7, #48]	; 0x30
    217c:	697b      	ldr	r3, [r7, #20]
/home/wangzh/software/OP-TEE/optee_os/lib/libutee/tee_api_operations.c:668 (discriminator 1)
    217e:	429a      	cmp	r2, r3
    2180:	d005      	beq.n	218e <TEE_SetOperationKey2+0x142>
/home/wangzh/software/OP-TEE/optee_os/lib/libutee/tee_api_operations.c:670
    2182:	f04f 0306 	mov.w	r3, #6
    2186:	f6cf 73ff 	movt	r3, #65535	; 0xffff
    218a:	64fb      	str	r3, [r7, #76]	; 0x4c
/home/wangzh/software/OP-TEE/optee_os/lib/libutee/tee_api_operations.c:671
    218c:	e04e      	b.n	222c <TEE_SetOperationKey2+0x1e0>
/home/wangzh/software/OP-TEE/optee_os/lib/libutee/tee_api_operations.c:675
    218e:	68fb      	ldr	r3, [r7, #12]
    2190:	691a      	ldr	r2, [r3, #16]
    2192:	6b3b      	ldr	r3, [r7, #48]	; 0x30
    2194:	429a      	cmp	r2, r3
    2196:	d205      	bcs.n	21a4 <TEE_SetOperationKey2+0x158>
/home/wangzh/software/OP-TEE/optee_os/lib/libutee/tee_api_operations.c:676
    2198:	f04f 0306 	mov.w	r3, #6
    219c:	f6cf 73ff 	movt	r3, #65535	; 0xffff
    21a0:	64fb      	str	r3, [r7, #76]	; 0x4c
/home/wangzh/software/OP-TEE/optee_os/lib/libutee/tee_api_operations.c:677
    21a2:	e043      	b.n	222c <TEE_SetOperationKey2+0x1e0>
/home/wangzh/software/OP-TEE/optee_os/lib/libutee/tee_api_operations.c:684
    21a4:	6b3b      	ldr	r3, [r7, #48]	; 0x30
    21a6:	64bb      	str	r3, [r7, #72]	; 0x48
/home/wangzh/software/OP-TEE/optee_os/lib/libutee/tee_api_operations.c:686
    21a8:	68fb      	ldr	r3, [r7, #12]
    21aa:	6a1b      	ldr	r3, [r3, #32]
    21ac:	4618      	mov	r0, r3
    21ae:	f009 f910 	bl	b3d2 <TEE_ResetTransientObject>
/home/wangzh/software/OP-TEE/optee_os/lib/libutee/tee_api_operations.c:687
    21b2:	68fb      	ldr	r3, [r7, #12]
    21b4:	6a5b      	ldr	r3, [r3, #36]	; 0x24
    21b6:	4618      	mov	r0, r3
    21b8:	f009 f90b 	bl	b3d2 <TEE_ResetTransientObject>
/home/wangzh/software/OP-TEE/optee_os/lib/libutee/tee_api_operations.c:688
    21bc:	68fb      	ldr	r3, [r7, #12]
    21be:	69db      	ldr	r3, [r3, #28]
    21c0:	f423 2280 	bic.w	r2, r3, #262144	; 0x40000
    21c4:	68fb      	ldr	r3, [r7, #12]
    21c6:	61da      	str	r2, [r3, #28]
/home/wangzh/software/OP-TEE/optee_os/lib/libutee/tee_api_operations.c:690
    21c8:	68fb      	ldr	r3, [r7, #12]
    21ca:	6a1b      	ldr	r3, [r3, #32]
    21cc:	68b9      	ldr	r1, [r7, #8]
    21ce:	4618      	mov	r0, r3
    21d0:	f009 fa38 	bl	b644 <TEE_CopyObjectAttributes1>
    21d4:	64f8      	str	r0, [r7, #76]	; 0x4c
/home/wangzh/software/OP-TEE/optee_os/lib/libutee/tee_api_operations.c:691
    21d6:	6cfb      	ldr	r3, [r7, #76]	; 0x4c
    21d8:	2b00      	cmp	r3, #0
    21da:	d124      	bne.n	2226 <TEE_SetOperationKey2+0x1da>
/home/wangzh/software/OP-TEE/optee_os/lib/libutee/tee_api_operations.c:694
    21dc:	68fb      	ldr	r3, [r7, #12]
    21de:	6a5b      	ldr	r3, [r3, #36]	; 0x24
    21e0:	6879      	ldr	r1, [r7, #4]
    21e2:	4618      	mov	r0, r3
    21e4:	f009 fa2e 	bl	b644 <TEE_CopyObjectAttributes1>
    21e8:	64f8      	str	r0, [r7, #76]	; 0x4c
/home/wangzh/software/OP-TEE/optee_os/lib/libutee/tee_api_operations.c:695
    21ea:	6cfb      	ldr	r3, [r7, #76]	; 0x4c
    21ec:	2b00      	cmp	r3, #0
    21ee:	d00c      	beq.n	220a <TEE_SetOperationKey2+0x1be>
/home/wangzh/software/OP-TEE/optee_os/lib/libutee/tee_api_operations.c:696
    21f0:	6cfa      	ldr	r2, [r7, #76]	; 0x4c
    21f2:	f04f 0301 	mov.w	r3, #1
    21f6:	f2cf 0310 	movt	r3, #61456	; 0xf010
    21fa:	429a      	cmp	r2, r3
    21fc:	d115      	bne.n	222a <TEE_SetOperationKey2+0x1de>
/home/wangzh/software/OP-TEE/optee_os/lib/libutee/tee_api_operations.c:697
    21fe:	f04f 0302 	mov.w	r3, #2
    2202:	f2cf 0310 	movt	r3, #61456	; 0xf010
    2206:	64fb      	str	r3, [r7, #76]	; 0x4c
/home/wangzh/software/OP-TEE/optee_os/lib/libutee/tee_api_operations.c:698
    2208:	e00f      	b.n	222a <TEE_SetOperationKey2+0x1de>
/home/wangzh/software/OP-TEE/optee_os/lib/libutee/tee_api_operations.c:701
    220a:	68fb      	ldr	r3, [r7, #12]
    220c:	69db      	ldr	r3, [r3, #28]
    220e:	f443 2280 	orr.w	r2, r3, #262144	; 0x40000
    2212:	68fb      	ldr	r3, [r7, #12]
    2214:	61da      	str	r2, [r3, #28]
/home/wangzh/software/OP-TEE/optee_os/lib/libutee/tee_api_operations.c:703
    2216:	68fb      	ldr	r3, [r7, #12]
    2218:	6cba      	ldr	r2, [r7, #72]	; 0x48
    221a:	615a      	str	r2, [r3, #20]
    221c:	e006      	b.n	222c <TEE_SetOperationKey2+0x1e0>
/home/wangzh/software/OP-TEE/optee_os/lib/libutee/tee_api_operations.c:640
    221e:	bf00      	nop
    2220:	e004      	b.n	222c <TEE_SetOperationKey2+0x1e0>
/home/wangzh/software/OP-TEE/optee_os/lib/libutee/tee_api_operations.c:654
    2222:	bf00      	nop
    2224:	e002      	b.n	222c <TEE_SetOperationKey2+0x1e0>
/home/wangzh/software/OP-TEE/optee_os/lib/libutee/tee_api_operations.c:692
    2226:	bf00      	nop
    2228:	e000      	b.n	222c <TEE_SetOperationKey2+0x1e0>
/home/wangzh/software/OP-TEE/optee_os/lib/libutee/tee_api_operations.c:698
    222a:	bf00      	nop
/home/wangzh/software/OP-TEE/optee_os/lib/libutee/tee_api_operations.c:706
    222c:	6cfb      	ldr	r3, [r7, #76]	; 0x4c
    222e:	2b00      	cmp	r3, #0
    2230:	d01e      	beq.n	2270 <TEE_SetOperationKey2+0x224>
/home/wangzh/software/OP-TEE/optee_os/lib/libutee/tee_api_operations.c:706 (discriminator 1)
    2232:	6cfa      	ldr	r2, [r7, #76]	; 0x4c
    2234:	f04f 0301 	mov.w	r3, #1
    2238:	f2cf 0310 	movt	r3, #61456	; 0xf010
    223c:	429a      	cmp	r2, r3
    223e:	d017      	beq.n	2270 <TEE_SetOperationKey2+0x224>
/home/wangzh/software/OP-TEE/optee_os/lib/libutee/tee_api_operations.c:707
    2240:	6cfa      	ldr	r2, [r7, #76]	; 0x4c
    2242:	f04f 0302 	mov.w	r3, #2
    2246:	f2cf 0310 	movt	r3, #61456	; 0xf010
    224a:	429a      	cmp	r2, r3
    224c:	d010      	beq.n	2270 <TEE_SetOperationKey2+0x224>
/home/wangzh/software/OP-TEE/optee_os/lib/libutee/tee_api_operations.c:708
    224e:	6cfa      	ldr	r2, [r7, #76]	; 0x4c
    2250:	f04f 0303 	mov.w	r3, #3
    2254:	f2cf 0310 	movt	r3, #61456	; 0xf010
    2258:	429a      	cmp	r2, r3
    225a:	d009      	beq.n	2270 <TEE_SetOperationKey2+0x224>
/home/wangzh/software/OP-TEE/optee_os/lib/libutee/tee_api_operations.c:709
    225c:	6cfa      	ldr	r2, [r7, #76]	; 0x4c
    225e:	f04f 0304 	mov.w	r3, #4
    2262:	f2cf 0310 	movt	r3, #61456	; 0xf010
    2266:	429a      	cmp	r2, r3
    2268:	d002      	beq.n	2270 <TEE_SetOperationKey2+0x224>
/home/wangzh/software/OP-TEE/optee_os/lib/libutee/tee_api_operations.c:711
    226a:	6cf8      	ldr	r0, [r7, #76]	; 0x4c
    226c:	f008 fe07 	bl	ae7e <TEE_Panic>
/home/wangzh/software/OP-TEE/optee_os/lib/libutee/tee_api_operations.c:713
    2270:	6cfb      	ldr	r3, [r7, #76]	; 0x4c
/home/wangzh/software/OP-TEE/optee_os/lib/libutee/tee_api_operations.c:714
    2272:	4618      	mov	r0, r3
    2274:	f107 0750 	add.w	r7, r7, #80	; 0x50
    2278:	46bd      	mov	sp, r7
    227a:	bd80      	pop	{r7, pc}

0000227c <TEE_CopyOperation>:
TEE_CopyOperation():
/home/wangzh/software/OP-TEE/optee_os/lib/libutee/tee_api_operations.c:717
    227c:	e96d 7e02 	strd	r7, lr, [sp, #-8]!
    2280:	b086      	sub	sp, #24
    2282:	af00      	add	r7, sp, #0
    2284:	6078      	str	r0, [r7, #4]
    2286:	6039      	str	r1, [r7, #0]
/home/wangzh/software/OP-TEE/optee_os/lib/libutee/tee_api_operations.c:720
    2288:	687b      	ldr	r3, [r7, #4]
    228a:	2b00      	cmp	r3, #0
    228c:	d002      	beq.n	2294 <TEE_CopyOperation+0x18>
/home/wangzh/software/OP-TEE/optee_os/lib/libutee/tee_api_operations.c:720 (discriminator 1)
    228e:	683b      	ldr	r3, [r7, #0]
    2290:	2b00      	cmp	r3, #0
    2292:	d103      	bne.n	229c <TEE_CopyOperation+0x20>
/home/wangzh/software/OP-TEE/optee_os/lib/libutee/tee_api_operations.c:721
    2294:	f04f 0000 	mov.w	r0, #0
    2298:	f008 fdf1 	bl	ae7e <TEE_Panic>
/home/wangzh/software/OP-TEE/optee_os/lib/libutee/tee_api_operations.c:722
    229c:	687b      	ldr	r3, [r7, #4]
    229e:	681a      	ldr	r2, [r3, #0]
    22a0:	683b      	ldr	r3, [r7, #0]
    22a2:	681b      	ldr	r3, [r3, #0]
    22a4:	429a      	cmp	r2, r3
    22a6:	d003      	beq.n	22b0 <TEE_CopyOperation+0x34>
/home/wangzh/software/OP-TEE/optee_os/lib/libutee/tee_api_operations.c:723
    22a8:	f04f 0000 	mov.w	r0, #0
    22ac:	f008 fde7 	bl	ae7e <TEE_Panic>
/home/wangzh/software/OP-TEE/optee_os/lib/libutee/tee_api_operations.c:724
    22b0:	683b      	ldr	r3, [r7, #0]
    22b2:	685b      	ldr	r3, [r3, #4]
    22b4:	2b05      	cmp	r3, #5
    22b6:	d021      	beq.n	22fc <TEE_CopyOperation+0x80>
/home/wangzh/software/OP-TEE/optee_os/lib/libutee/tee_api_operations.c:725
    22b8:	f04f 0300 	mov.w	r3, #0
    22bc:	617b      	str	r3, [r7, #20]
/home/wangzh/software/OP-TEE/optee_os/lib/libutee/tee_api_operations.c:726
    22be:	f04f 0300 	mov.w	r3, #0
    22c2:	613b      	str	r3, [r7, #16]
/home/wangzh/software/OP-TEE/optee_os/lib/libutee/tee_api_operations.c:728
    22c4:	683b      	ldr	r3, [r7, #0]
    22c6:	69db      	ldr	r3, [r3, #28]
    22c8:	f403 2380 	and.w	r3, r3, #262144	; 0x40000
    22cc:	2b00      	cmp	r3, #0
    22ce:	d005      	beq.n	22dc <TEE_CopyOperation+0x60>
/home/wangzh/software/OP-TEE/optee_os/lib/libutee/tee_api_operations.c:729
    22d0:	683b      	ldr	r3, [r7, #0]
    22d2:	6a1b      	ldr	r3, [r3, #32]
    22d4:	617b      	str	r3, [r7, #20]
/home/wangzh/software/OP-TEE/optee_os/lib/libutee/tee_api_operations.c:730
    22d6:	683b      	ldr	r3, [r7, #0]
    22d8:	6a5b      	ldr	r3, [r3, #36]	; 0x24
    22da:	613b      	str	r3, [r7, #16]
/home/wangzh/software/OP-TEE/optee_os/lib/libutee/tee_api_operations.c:733
    22dc:	683b      	ldr	r3, [r7, #0]
    22de:	69db      	ldr	r3, [r3, #28]
    22e0:	f403 2300 	and.w	r3, r3, #524288	; 0x80000
    22e4:	2b00      	cmp	r3, #0
    22e6:	d104      	bne.n	22f2 <TEE_CopyOperation+0x76>
/home/wangzh/software/OP-TEE/optee_os/lib/libutee/tee_api_operations.c:735
    22e8:	6979      	ldr	r1, [r7, #20]
    22ea:	6878      	ldr	r0, [r7, #4]
    22ec:	f7ff fe0c 	bl	1f08 <TEE_SetOperationKey>
    22f0:	e004      	b.n	22fc <TEE_CopyOperation+0x80>
/home/wangzh/software/OP-TEE/optee_os/lib/libutee/tee_api_operations.c:737
    22f2:	693a      	ldr	r2, [r7, #16]
    22f4:	6979      	ldr	r1, [r7, #20]
    22f6:	6878      	ldr	r0, [r7, #4]
    22f8:	f7ff fea8 	bl	204c <TEE_SetOperationKey2>
/home/wangzh/software/OP-TEE/optee_os/lib/libutee/tee_api_operations.c:740
    22fc:	683b      	ldr	r3, [r7, #0]
    22fe:	69da      	ldr	r2, [r3, #28]
    2300:	687b      	ldr	r3, [r7, #4]
    2302:	61da      	str	r2, [r3, #28]
/home/wangzh/software/OP-TEE/optee_os/lib/libutee/tee_api_operations.c:741
    2304:	683b      	ldr	r3, [r7, #0]
    2306:	695a      	ldr	r2, [r3, #20]
    2308:	687b      	ldr	r3, [r7, #4]
    230a:	615a      	str	r2, [r3, #20]
/home/wangzh/software/OP-TEE/optee_os/lib/libutee/tee_api_operations.c:742
    230c:	683b      	ldr	r3, [r7, #0]
    230e:	6a9a      	ldr	r2, [r3, #40]	; 0x28
    2310:	687b      	ldr	r3, [r7, #4]
    2312:	629a      	str	r2, [r3, #40]	; 0x28
/home/wangzh/software/OP-TEE/optee_os/lib/libutee/tee_api_operations.c:744
    2314:	687b      	ldr	r3, [r7, #4]
    2316:	f893 2030 	ldrb.w	r2, [r3, #48]	; 0x30
    231a:	683b      	ldr	r3, [r7, #0]
    231c:	f893 3030 	ldrb.w	r3, [r3, #48]	; 0x30
    2320:	429a      	cmp	r2, r3
    2322:	d105      	bne.n	2330 <TEE_CopyOperation+0xb4>
/home/wangzh/software/OP-TEE/optee_os/lib/libutee/tee_api_operations.c:745 (discriminator 1)
    2324:	687b      	ldr	r3, [r7, #4]
    2326:	6b5a      	ldr	r2, [r3, #52]	; 0x34
    2328:	683b      	ldr	r3, [r7, #0]
    232a:	6b5b      	ldr	r3, [r3, #52]	; 0x34
/home/wangzh/software/OP-TEE/optee_os/lib/libutee/tee_api_operations.c:744 (discriminator 1)
    232c:	429a      	cmp	r2, r3
    232e:	d003      	beq.n	2338 <TEE_CopyOperation+0xbc>
/home/wangzh/software/OP-TEE/optee_os/lib/libutee/tee_api_operations.c:746
    2330:	f04f 0000 	mov.w	r0, #0
    2334:	f008 fda3 	bl	ae7e <TEE_Panic>
/home/wangzh/software/OP-TEE/optee_os/lib/libutee/tee_api_operations.c:748
    2338:	687b      	ldr	r3, [r7, #4]
    233a:	6adb      	ldr	r3, [r3, #44]	; 0x2c
    233c:	2b00      	cmp	r3, #0
    233e:	d015      	beq.n	236c <TEE_CopyOperation+0xf0>
/home/wangzh/software/OP-TEE/optee_os/lib/libutee/tee_api_operations.c:749
    2340:	683b      	ldr	r3, [r7, #0]
    2342:	6adb      	ldr	r3, [r3, #44]	; 0x2c
    2344:	2b00      	cmp	r3, #0
    2346:	d103      	bne.n	2350 <TEE_CopyOperation+0xd4>
/home/wangzh/software/OP-TEE/optee_os/lib/libutee/tee_api_operations.c:750
    2348:	f04f 0000 	mov.w	r0, #0
    234c:	f008 fd97 	bl	ae7e <TEE_Panic>
/home/wangzh/software/OP-TEE/optee_os/lib/libutee/tee_api_operations.c:752
    2350:	687b      	ldr	r3, [r7, #4]
    2352:	6ad8      	ldr	r0, [r3, #44]	; 0x2c
    2354:	683b      	ldr	r3, [r7, #0]
    2356:	6ad9      	ldr	r1, [r3, #44]	; 0x2c
    2358:	683b      	ldr	r3, [r7, #0]
    235a:	6b9b      	ldr	r3, [r3, #56]	; 0x38
    235c:	461a      	mov	r2, r3
    235e:	f009 fead 	bl	c0bc <memcpy>
/home/wangzh/software/OP-TEE/optee_os/lib/libutee/tee_api_operations.c:753
    2362:	683b      	ldr	r3, [r7, #0]
    2364:	6b9a      	ldr	r2, [r3, #56]	; 0x38
    2366:	687b      	ldr	r3, [r7, #4]
    2368:	639a      	str	r2, [r3, #56]	; 0x38
    236a:	e007      	b.n	237c <TEE_CopyOperation+0x100>
/home/wangzh/software/OP-TEE/optee_os/lib/libutee/tee_api_operations.c:754
    236c:	683b      	ldr	r3, [r7, #0]
    236e:	6adb      	ldr	r3, [r3, #44]	; 0x2c
    2370:	2b00      	cmp	r3, #0
    2372:	d003      	beq.n	237c <TEE_CopyOperation+0x100>
/home/wangzh/software/OP-TEE/optee_os/lib/libutee/tee_api_operations.c:755
    2374:	f04f 0000 	mov.w	r0, #0
    2378:	f008 fd81 	bl	ae7e <TEE_Panic>
/home/wangzh/software/OP-TEE/optee_os/lib/libutee/tee_api_operations.c:758
    237c:	687b      	ldr	r3, [r7, #4]
    237e:	6bda      	ldr	r2, [r3, #60]	; 0x3c
    2380:	683b      	ldr	r3, [r7, #0]
    2382:	6bdb      	ldr	r3, [r3, #60]	; 0x3c
    2384:	4619      	mov	r1, r3
    2386:	4610      	mov	r0, r2
    2388:	f002 e810 	blx	43ac <utee_cryp_state_copy>
    238c:	60f8      	str	r0, [r7, #12]
/home/wangzh/software/OP-TEE/optee_os/lib/libutee/tee_api_operations.c:759
    238e:	68fb      	ldr	r3, [r7, #12]
    2390:	2b00      	cmp	r3, #0
    2392:	d002      	beq.n	239a <TEE_CopyOperation+0x11e>
/home/wangzh/software/OP-TEE/optee_os/lib/libutee/tee_api_operations.c:760
    2394:	68f8      	ldr	r0, [r7, #12]
    2396:	f008 fd72 	bl	ae7e <TEE_Panic>
/home/wangzh/software/OP-TEE/optee_os/lib/libutee/tee_api_operations.c:761
    239a:	bf00      	nop
    239c:	f107 0718 	add.w	r7, r7, #24
    23a0:	46bd      	mov	sp, r7
    23a2:	bd80      	pop	{r7, pc}

000023a4 <init_hash_operation>:
init_hash_operation():
/home/wangzh/software/OP-TEE/optee_os/lib/libutee/tee_api_operations.c:767
    23a4:	e96d 7e02 	strd	r7, lr, [sp, #-8]!
    23a8:	b086      	sub	sp, #24
    23aa:	af00      	add	r7, sp, #0
    23ac:	60f8      	str	r0, [r7, #12]
    23ae:	60b9      	str	r1, [r7, #8]
    23b0:	607a      	str	r2, [r7, #4]
/home/wangzh/software/OP-TEE/optee_os/lib/libutee/tee_api_operations.c:774
    23b2:	68fb      	ldr	r3, [r7, #12]
    23b4:	6bdb      	ldr	r3, [r3, #60]	; 0x3c
    23b6:	687a      	ldr	r2, [r7, #4]
    23b8:	68b9      	ldr	r1, [r7, #8]
    23ba:	4618      	mov	r0, r3
    23bc:	f002 e80a 	blx	43d4 <utee_hash_init>
    23c0:	6178      	str	r0, [r7, #20]
/home/wangzh/software/OP-TEE/optee_os/lib/libutee/tee_api_operations.c:775
    23c2:	697b      	ldr	r3, [r7, #20]
    23c4:	2b00      	cmp	r3, #0
    23c6:	d002      	beq.n	23ce <init_hash_operation+0x2a>
/home/wangzh/software/OP-TEE/optee_os/lib/libutee/tee_api_operations.c:776
    23c8:	6978      	ldr	r0, [r7, #20]
    23ca:	f008 fd58 	bl	ae7e <TEE_Panic>
/home/wangzh/software/OP-TEE/optee_os/lib/libutee/tee_api_operations.c:777
    23ce:	68fb      	ldr	r3, [r7, #12]
    23d0:	f04f 0200 	mov.w	r2, #0
    23d4:	639a      	str	r2, [r3, #56]	; 0x38
/home/wangzh/software/OP-TEE/optee_os/lib/libutee/tee_api_operations.c:778
    23d6:	68fb      	ldr	r3, [r7, #12]
    23d8:	69db      	ldr	r3, [r3, #28]
    23da:	f443 3200 	orr.w	r2, r3, #131072	; 0x20000
    23de:	68fb      	ldr	r3, [r7, #12]
    23e0:	61da      	str	r2, [r3, #28]
/home/wangzh/software/OP-TEE/optee_os/lib/libutee/tee_api_operations.c:779
    23e2:	bf00      	nop
    23e4:	f107 0718 	add.w	r7, r7, #24
    23e8:	46bd      	mov	sp, r7
    23ea:	bd80      	pop	{r7, pc}

000023ec <TEE_DigestUpdate>:
TEE_DigestUpdate():
/home/wangzh/software/OP-TEE/optee_os/lib/libutee/tee_api_operations.c:783
    23ec:	e96d 7e02 	strd	r7, lr, [sp, #-8]!
    23f0:	b086      	sub	sp, #24
    23f2:	af00      	add	r7, sp, #0
    23f4:	60f8      	str	r0, [r7, #12]
    23f6:	60b9      	str	r1, [r7, #8]
    23f8:	607a      	str	r2, [r7, #4]
/home/wangzh/software/OP-TEE/optee_os/lib/libutee/tee_api_operations.c:784
    23fa:	f04f 0300 	mov.w	r3, #0
    23fe:	f6cf 73ff 	movt	r3, #65535	; 0xffff
    2402:	617b      	str	r3, [r7, #20]
/home/wangzh/software/OP-TEE/optee_os/lib/libutee/tee_api_operations.c:786
    2404:	68fb      	ldr	r3, [r7, #12]
    2406:	2b00      	cmp	r3, #0
    2408:	d003      	beq.n	2412 <TEE_DigestUpdate+0x26>
/home/wangzh/software/OP-TEE/optee_os/lib/libutee/tee_api_operations.c:787 (discriminator 1)
    240a:	68fb      	ldr	r3, [r7, #12]
    240c:	685b      	ldr	r3, [r3, #4]
/home/wangzh/software/OP-TEE/optee_os/lib/libutee/tee_api_operations.c:786 (discriminator 1)
    240e:	2b05      	cmp	r3, #5
    2410:	d003      	beq.n	241a <TEE_DigestUpdate+0x2e>
/home/wangzh/software/OP-TEE/optee_os/lib/libutee/tee_api_operations.c:788
    2412:	f04f 0000 	mov.w	r0, #0
    2416:	f008 fd32 	bl	ae7e <TEE_Panic>
/home/wangzh/software/OP-TEE/optee_os/lib/libutee/tee_api_operations.c:790
    241a:	68fb      	ldr	r3, [r7, #12]
    241c:	f04f 0201 	mov.w	r2, #1
    2420:	629a      	str	r2, [r3, #40]	; 0x28
/home/wangzh/software/OP-TEE/optee_os/lib/libutee/tee_api_operations.c:792
    2422:	68fb      	ldr	r3, [r7, #12]
    2424:	6bdb      	ldr	r3, [r3, #60]	; 0x3c
    2426:	687a      	ldr	r2, [r7, #4]
    2428:	68b9      	ldr	r1, [r7, #8]
    242a:	4618      	mov	r0, r3
    242c:	f001 efdc 	blx	43e8 <utee_hash_update>
    2430:	6178      	str	r0, [r7, #20]
/home/wangzh/software/OP-TEE/optee_os/lib/libutee/tee_api_operations.c:793
    2432:	697b      	ldr	r3, [r7, #20]
    2434:	2b00      	cmp	r3, #0
    2436:	d002      	beq.n	243e <TEE_DigestUpdate+0x52>
/home/wangzh/software/OP-TEE/optee_os/lib/libutee/tee_api_operations.c:794
    2438:	6978      	ldr	r0, [r7, #20]
    243a:	f008 fd20 	bl	ae7e <TEE_Panic>
/home/wangzh/software/OP-TEE/optee_os/lib/libutee/tee_api_operations.c:795
    243e:	bf00      	nop
    2440:	f107 0718 	add.w	r7, r7, #24
    2444:	46bd      	mov	sp, r7
    2446:	bd80      	pop	{r7, pc}

00002448 <TEE_DigestDoFinal>:
TEE_DigestDoFinal():
/home/wangzh/software/OP-TEE/optee_os/lib/libutee/tee_api_operations.c:799
    2448:	f84d 4d0c 	str.w	r4, [sp, #-12]!
    244c:	e9cd 7e01 	strd	r7, lr, [sp, #4]
    2450:	b08b      	sub	sp, #44	; 0x2c
    2452:	af02      	add	r7, sp, #8
    2454:	60f8      	str	r0, [r7, #12]
    2456:	60b9      	str	r1, [r7, #8]
    2458:	607a      	str	r2, [r7, #4]
    245a:	603b      	str	r3, [r7, #0]
/home/wangzh/software/OP-TEE/optee_os/lib/libutee/tee_api_operations.c:803
    245c:	68fb      	ldr	r3, [r7, #12]
    245e:	2b00      	cmp	r3, #0
    2460:	d00f      	beq.n	2482 <TEE_DigestDoFinal+0x3a>
/home/wangzh/software/OP-TEE/optee_os/lib/libutee/tee_api_operations.c:803 (discriminator 1)
    2462:	68bb      	ldr	r3, [r7, #8]
    2464:	2b00      	cmp	r3, #0
    2466:	d102      	bne.n	246e <TEE_DigestDoFinal+0x26>
/home/wangzh/software/OP-TEE/optee_os/lib/libutee/tee_api_operations.c:804
    2468:	687b      	ldr	r3, [r7, #4]
    246a:	2b00      	cmp	r3, #0
    246c:	d109      	bne.n	2482 <TEE_DigestDoFinal+0x3a>
/home/wangzh/software/OP-TEE/optee_os/lib/libutee/tee_api_operations.c:804 (discriminator 1)
    246e:	683b      	ldr	r3, [r7, #0]
    2470:	2b00      	cmp	r3, #0
    2472:	d006      	beq.n	2482 <TEE_DigestDoFinal+0x3a>
/home/wangzh/software/OP-TEE/optee_os/lib/libutee/tee_api_operations.c:805
    2474:	6b3b      	ldr	r3, [r7, #48]	; 0x30
    2476:	2b00      	cmp	r3, #0
    2478:	d003      	beq.n	2482 <TEE_DigestDoFinal+0x3a>
/home/wangzh/software/OP-TEE/optee_os/lib/libutee/tee_api_operations.c:807
    247a:	68fb      	ldr	r3, [r7, #12]
    247c:	685b      	ldr	r3, [r3, #4]
/home/wangzh/software/OP-TEE/optee_os/lib/libutee/tee_api_operations.c:806
    247e:	2b05      	cmp	r3, #5
    2480:	d005      	beq.n	248e <TEE_DigestDoFinal+0x46>
/home/wangzh/software/OP-TEE/optee_os/lib/libutee/tee_api_operations.c:808
    2482:	f04f 0306 	mov.w	r3, #6
    2486:	f6cf 73ff 	movt	r3, #65535	; 0xffff
    248a:	61fb      	str	r3, [r7, #28]
/home/wangzh/software/OP-TEE/optee_os/lib/libutee/tee_api_operations.c:809
    248c:	e025      	b.n	24da <TEE_DigestDoFinal+0x92>
/home/wangzh/software/OP-TEE/optee_os/lib/libutee/tee_api_operations.c:812
    248e:	6b3b      	ldr	r3, [r7, #48]	; 0x30
    2490:	681b      	ldr	r3, [r3, #0]
    2492:	f04f 0400 	mov.w	r4, #0
    2496:	e9c7 3404 	strd	r3, r4, [r7, #16]
/home/wangzh/software/OP-TEE/optee_os/lib/libutee/tee_api_operations.c:813
    249a:	68fb      	ldr	r3, [r7, #12]
    249c:	6bd8      	ldr	r0, [r3, #60]	; 0x3c
    249e:	f107 0310 	add.w	r3, r7, #16
    24a2:	9300      	str	r3, [sp, #0]
    24a4:	683b      	ldr	r3, [r7, #0]
    24a6:	687a      	ldr	r2, [r7, #4]
    24a8:	68b9      	ldr	r1, [r7, #8]
    24aa:	f001 efa8 	blx	43fc <utee_hash_final>
    24ae:	61f8      	str	r0, [r7, #28]
/home/wangzh/software/OP-TEE/optee_os/lib/libutee/tee_api_operations.c:814
    24b0:	e9d7 3404 	ldrd	r3, r4, [r7, #16]
    24b4:	461a      	mov	r2, r3
    24b6:	6b3b      	ldr	r3, [r7, #48]	; 0x30
    24b8:	601a      	str	r2, [r3, #0]
/home/wangzh/software/OP-TEE/optee_os/lib/libutee/tee_api_operations.c:815
    24ba:	69fb      	ldr	r3, [r7, #28]
    24bc:	2b00      	cmp	r3, #0
    24be:	d10b      	bne.n	24d8 <TEE_DigestDoFinal+0x90>
/home/wangzh/software/OP-TEE/optee_os/lib/libutee/tee_api_operations.c:819
    24c0:	f04f 0200 	mov.w	r2, #0
    24c4:	f04f 0100 	mov.w	r1, #0
    24c8:	68f8      	ldr	r0, [r7, #12]
    24ca:	f7ff ff6b 	bl	23a4 <init_hash_operation>
/home/wangzh/software/OP-TEE/optee_os/lib/libutee/tee_api_operations.c:821
    24ce:	68fb      	ldr	r3, [r7, #12]
    24d0:	f04f 0200 	mov.w	r2, #0
    24d4:	629a      	str	r2, [r3, #40]	; 0x28
    24d6:	e000      	b.n	24da <TEE_DigestDoFinal+0x92>
/home/wangzh/software/OP-TEE/optee_os/lib/libutee/tee_api_operations.c:816
    24d8:	bf00      	nop
/home/wangzh/software/OP-TEE/optee_os/lib/libutee/tee_api_operations.c:824
    24da:	69fb      	ldr	r3, [r7, #28]
    24dc:	2b00      	cmp	r3, #0
    24de:	d009      	beq.n	24f4 <TEE_DigestDoFinal+0xac>
/home/wangzh/software/OP-TEE/optee_os/lib/libutee/tee_api_operations.c:824 (discriminator 1)
    24e0:	69fa      	ldr	r2, [r7, #28]
    24e2:	f04f 0310 	mov.w	r3, #16
    24e6:	f6cf 73ff 	movt	r3, #65535	; 0xffff
    24ea:	429a      	cmp	r2, r3
    24ec:	d002      	beq.n	24f4 <TEE_DigestDoFinal+0xac>
/home/wangzh/software/OP-TEE/optee_os/lib/libutee/tee_api_operations.c:826
    24ee:	69f8      	ldr	r0, [r7, #28]
    24f0:	f008 fcc5 	bl	ae7e <TEE_Panic>
/home/wangzh/software/OP-TEE/optee_os/lib/libutee/tee_api_operations.c:828
    24f4:	69fb      	ldr	r3, [r7, #28]
/home/wangzh/software/OP-TEE/optee_os/lib/libutee/tee_api_operations.c:829
    24f6:	4618      	mov	r0, r3
    24f8:	f107 0724 	add.w	r7, r7, #36	; 0x24
    24fc:	46bd      	mov	sp, r7
    24fe:	e9dd 4700 	ldrd	r4, r7, [sp]
    2502:	b002      	add	sp, #8
    2504:	f85d fb04 	ldr.w	pc, [sp], #4

00002508 <TEE_CipherInit>:
TEE_CipherInit():
/home/wangzh/software/OP-TEE/optee_os/lib/libutee/tee_api_operations.c:835
    2508:	e96d 7e02 	strd	r7, lr, [sp, #-8]!
    250c:	b086      	sub	sp, #24
    250e:	af00      	add	r7, sp, #0
    2510:	60f8      	str	r0, [r7, #12]
    2512:	60b9      	str	r1, [r7, #8]
    2514:	607a      	str	r2, [r7, #4]
/home/wangzh/software/OP-TEE/optee_os/lib/libutee/tee_api_operations.c:838
    2516:	68fb      	ldr	r3, [r7, #12]
    2518:	2b00      	cmp	r3, #0
    251a:	d103      	bne.n	2524 <TEE_CipherInit+0x1c>
/home/wangzh/software/OP-TEE/optee_os/lib/libutee/tee_api_operations.c:839
    251c:	f04f 0000 	mov.w	r0, #0
    2520:	f008 fcad 	bl	ae7e <TEE_Panic>
/home/wangzh/software/OP-TEE/optee_os/lib/libutee/tee_api_operations.c:841
    2524:	68fb      	ldr	r3, [r7, #12]
    2526:	685b      	ldr	r3, [r3, #4]
    2528:	2b01      	cmp	r3, #1
    252a:	d003      	beq.n	2534 <TEE_CipherInit+0x2c>
/home/wangzh/software/OP-TEE/optee_os/lib/libutee/tee_api_operations.c:842
    252c:	f04f 0000 	mov.w	r0, #0
    2530:	f008 fca5 	bl	ae7e <TEE_Panic>
/home/wangzh/software/OP-TEE/optee_os/lib/libutee/tee_api_operations.c:844
    2534:	68fb      	ldr	r3, [r7, #12]
    2536:	69db      	ldr	r3, [r3, #28]
    2538:	f403 2380 	and.w	r3, r3, #262144	; 0x40000
    253c:	2b00      	cmp	r3, #0
    253e:	d003      	beq.n	2548 <TEE_CipherInit+0x40>
/home/wangzh/software/OP-TEE/optee_os/lib/libutee/tee_api_operations.c:845 (discriminator 1)
    2540:	68fb      	ldr	r3, [r7, #12]
    2542:	6a1b      	ldr	r3, [r3, #32]
/home/wangzh/software/OP-TEE/optee_os/lib/libutee/tee_api_operations.c:844 (discriminator 1)
    2544:	2b00      	cmp	r3, #0
    2546:	d103      	bne.n	2550 <TEE_CipherInit+0x48>
/home/wangzh/software/OP-TEE/optee_os/lib/libutee/tee_api_operations.c:846
    2548:	f04f 0000 	mov.w	r0, #0
    254c:	f008 fc97 	bl	ae7e <TEE_Panic>
/home/wangzh/software/OP-TEE/optee_os/lib/libutee/tee_api_operations.c:848
    2550:	68fb      	ldr	r3, [r7, #12]
    2552:	6a9b      	ldr	r3, [r3, #40]	; 0x28
    2554:	2b00      	cmp	r3, #0
    2556:	d002      	beq.n	255e <TEE_CipherInit+0x56>
/home/wangzh/software/OP-TEE/optee_os/lib/libutee/tee_api_operations.c:849
    2558:	68f8      	ldr	r0, [r7, #12]
    255a:	f7ff fc95 	bl	1e88 <TEE_ResetOperation>
/home/wangzh/software/OP-TEE/optee_os/lib/libutee/tee_api_operations.c:851
    255e:	68fb      	ldr	r3, [r7, #12]
    2560:	f04f 0201 	mov.w	r2, #1
    2564:	629a      	str	r2, [r3, #40]	; 0x28
/home/wangzh/software/OP-TEE/optee_os/lib/libutee/tee_api_operations.c:853
    2566:	68fb      	ldr	r3, [r7, #12]
    2568:	6bdb      	ldr	r3, [r3, #60]	; 0x3c
    256a:	687a      	ldr	r2, [r7, #4]
    256c:	68b9      	ldr	r1, [r7, #8]
    256e:	4618      	mov	r0, r3
    2570:	f001 ef50 	blx	4414 <utee_cipher_init>
    2574:	6178      	str	r0, [r7, #20]
/home/wangzh/software/OP-TEE/optee_os/lib/libutee/tee_api_operations.c:854
    2576:	697b      	ldr	r3, [r7, #20]
    2578:	2b00      	cmp	r3, #0
    257a:	d002      	beq.n	2582 <TEE_CipherInit+0x7a>
/home/wangzh/software/OP-TEE/optee_os/lib/libutee/tee_api_operations.c:855
    257c:	6978      	ldr	r0, [r7, #20]
    257e:	f008 fc7e 	bl	ae7e <TEE_Panic>
/home/wangzh/software/OP-TEE/optee_os/lib/libutee/tee_api_operations.c:857
    2582:	68fb      	ldr	r3, [r7, #12]
    2584:	f04f 0200 	mov.w	r2, #0
    2588:	639a      	str	r2, [r3, #56]	; 0x38
/home/wangzh/software/OP-TEE/optee_os/lib/libutee/tee_api_operations.c:858
    258a:	68fb      	ldr	r3, [r7, #12]
    258c:	69db      	ldr	r3, [r3, #28]
    258e:	f443 3200 	orr.w	r2, r3, #131072	; 0x20000
    2592:	68fb      	ldr	r3, [r7, #12]
    2594:	61da      	str	r2, [r3, #28]
/home/wangzh/software/OP-TEE/optee_os/lib/libutee/tee_api_operations.c:859
    2596:	bf00      	nop
    2598:	f107 0718 	add.w	r7, r7, #24
    259c:	46bd      	mov	sp, r7
    259e:	bd80      	pop	{r7, pc}

000025a0 <tee_buffer_update>:
tee_buffer_update():
/home/wangzh/software/OP-TEE/optee_os/lib/libutee/tee_api_operations.c:867
    25a0:	f84d 4d0c 	str.w	r4, [sp, #-12]!
    25a4:	e9cd 7e01 	strd	r7, lr, [sp, #4]
    25a8:	b099      	sub	sp, #100	; 0x64
    25aa:	af02      	add	r7, sp, #8
    25ac:	60f8      	str	r0, [r7, #12]
    25ae:	60b9      	str	r1, [r7, #8]
    25b0:	607a      	str	r2, [r7, #4]
    25b2:	603b      	str	r3, [r7, #0]
/home/wangzh/software/OP-TEE/optee_os/lib/libutee/tee_api_operations.c:869
    25b4:	687b      	ldr	r3, [r7, #4]
    25b6:	657b      	str	r3, [r7, #84]	; 0x54
/home/wangzh/software/OP-TEE/optee_os/lib/libutee/tee_api_operations.c:870
    25b8:	683b      	ldr	r3, [r7, #0]
    25ba:	653b      	str	r3, [r7, #80]	; 0x50
/home/wangzh/software/OP-TEE/optee_os/lib/libutee/tee_api_operations.c:871
    25bc:	6ebb      	ldr	r3, [r7, #104]	; 0x68
    25be:	64fb      	str	r3, [r7, #76]	; 0x4c
/home/wangzh/software/OP-TEE/optee_os/lib/libutee/tee_api_operations.c:872
    25c0:	6efb      	ldr	r3, [r7, #108]	; 0x6c
    25c2:	e9d3 3400 	ldrd	r3, r4, [r3]
    25c6:	64bb      	str	r3, [r7, #72]	; 0x48
/home/wangzh/software/OP-TEE/optee_os/lib/libutee/tee_api_operations.c:873
    25c8:	f04f 0300 	mov.w	r3, #0
    25cc:	647b      	str	r3, [r7, #68]	; 0x44
/home/wangzh/software/OP-TEE/optee_os/lib/libutee/tee_api_operations.c:879
    25ce:	6d7b      	ldr	r3, [r7, #84]	; 0x54
    25d0:	2b00      	cmp	r3, #0
    25d2:	d108      	bne.n	25e6 <tee_buffer_update+0x46>
/home/wangzh/software/OP-TEE/optee_os/lib/libutee/tee_api_operations.c:880
    25d4:	6d3b      	ldr	r3, [r7, #80]	; 0x50
    25d6:	2b00      	cmp	r3, #0
    25d8:	f000 8156 	beq.w	2888 <tee_buffer_update+0x2e8>
/home/wangzh/software/OP-TEE/optee_os/lib/libutee/tee_api_operations.c:881
    25dc:	f04f 0000 	mov.w	r0, #0
    25e0:	f008 fc4d 	bl	ae7e <TEE_Panic>
/home/wangzh/software/OP-TEE/optee_os/lib/libutee/tee_api_operations.c:882
    25e4:	e150      	b.n	2888 <tee_buffer_update+0x2e8>
/home/wangzh/software/OP-TEE/optee_os/lib/libutee/tee_api_operations.c:885
    25e6:	68fb      	ldr	r3, [r7, #12]
    25e8:	f893 3030 	ldrb.w	r3, [r3, #48]	; 0x30
    25ec:	2b00      	cmp	r3, #0
    25ee:	d008      	beq.n	2602 <tee_buffer_update+0x62>
/home/wangzh/software/OP-TEE/optee_os/lib/libutee/tee_api_operations.c:886
    25f0:	68fb      	ldr	r3, [r7, #12]
    25f2:	6b5b      	ldr	r3, [r3, #52]	; 0x34
    25f4:	ea4f 0343 	mov.w	r3, r3, lsl #1
    25f8:	63fb      	str	r3, [r7, #60]	; 0x3c
/home/wangzh/software/OP-TEE/optee_os/lib/libutee/tee_api_operations.c:887
    25fa:	f04f 0301 	mov.w	r3, #1
    25fe:	63bb      	str	r3, [r7, #56]	; 0x38
    2600:	e005      	b.n	260e <tee_buffer_update+0x6e>
/home/wangzh/software/OP-TEE/optee_os/lib/libutee/tee_api_operations.c:889
    2602:	68fb      	ldr	r3, [r7, #12]
    2604:	6b5b      	ldr	r3, [r3, #52]	; 0x34
    2606:	63fb      	str	r3, [r7, #60]	; 0x3c
/home/wangzh/software/OP-TEE/optee_os/lib/libutee/tee_api_operations.c:890
    2608:	f04f 0300 	mov.w	r3, #0
    260c:	63bb      	str	r3, [r7, #56]	; 0x38
/home/wangzh/software/OP-TEE/optee_os/lib/libutee/tee_api_operations.c:893
    260e:	68fb      	ldr	r3, [r7, #12]
    2610:	6b9b      	ldr	r3, [r3, #56]	; 0x38
    2612:	2b00      	cmp	r3, #0
    2614:	d049      	beq.n	26aa <tee_buffer_update+0x10a>
/home/wangzh/software/OP-TEE/optee_os/lib/libutee/tee_api_operations.c:895
    2616:	68fb      	ldr	r3, [r7, #12]
    2618:	6b9a      	ldr	r2, [r3, #56]	; 0x38
    261a:	68fb      	ldr	r3, [r7, #12]
    261c:	6b5b      	ldr	r3, [r3, #52]	; 0x34
    261e:	429a      	cmp	r2, r3
    2620:	d20f      	bcs.n	2642 <tee_buffer_update+0xa2>
/home/wangzh/software/OP-TEE/optee_os/lib/libutee/tee_api_operations.c:896
    2622:	6d3b      	ldr	r3, [r7, #80]	; 0x50
    2624:	637b      	str	r3, [r7, #52]	; 0x34
    2626:	68fb      	ldr	r3, [r7, #12]
    2628:	6b5a      	ldr	r2, [r3, #52]	; 0x34
    262a:	68fb      	ldr	r3, [r7, #12]
    262c:	6b9b      	ldr	r3, [r3, #56]	; 0x38
    262e:	eba2 0303 	sub.w	r3, r2, r3
    2632:	633b      	str	r3, [r7, #48]	; 0x30
    2634:	6b3a      	ldr	r2, [r7, #48]	; 0x30
    2636:	6b7b      	ldr	r3, [r7, #52]	; 0x34
    2638:	4293      	cmp	r3, r2
    263a:	bf28      	it	cs
    263c:	4613      	movcs	r3, r2
    263e:	643b      	str	r3, [r7, #64]	; 0x40
    2640:	e00d      	b.n	265e <tee_buffer_update+0xbe>
/home/wangzh/software/OP-TEE/optee_os/lib/libutee/tee_api_operations.c:898
    2642:	6d3b      	ldr	r3, [r7, #80]	; 0x50
    2644:	62fb      	str	r3, [r7, #44]	; 0x2c
    2646:	68fb      	ldr	r3, [r7, #12]
    2648:	6b9b      	ldr	r3, [r3, #56]	; 0x38
    264a:	6bfa      	ldr	r2, [r7, #60]	; 0x3c
    264c:	eba2 0303 	sub.w	r3, r2, r3
    2650:	62bb      	str	r3, [r7, #40]	; 0x28
    2652:	6aba      	ldr	r2, [r7, #40]	; 0x28
    2654:	6afb      	ldr	r3, [r7, #44]	; 0x2c
    2656:	4293      	cmp	r3, r2
    2658:	bf28      	it	cs
    265a:	4613      	movcs	r3, r2
    265c:	643b      	str	r3, [r7, #64]	; 0x40
/home/wangzh/software/OP-TEE/optee_os/lib/libutee/tee_api_operations.c:899
    265e:	68fb      	ldr	r3, [r7, #12]
    2660:	6ada      	ldr	r2, [r3, #44]	; 0x2c
    2662:	68fb      	ldr	r3, [r7, #12]
    2664:	6b9b      	ldr	r3, [r3, #56]	; 0x38
    2666:	4413      	add	r3, r2
    2668:	6c3a      	ldr	r2, [r7, #64]	; 0x40
    266a:	6d79      	ldr	r1, [r7, #84]	; 0x54
    266c:	4618      	mov	r0, r3
    266e:	f009 fd25 	bl	c0bc <memcpy>
/home/wangzh/software/OP-TEE/optee_os/lib/libutee/tee_api_operations.c:900
    2672:	68fb      	ldr	r3, [r7, #12]
    2674:	6b9a      	ldr	r2, [r3, #56]	; 0x38
    2676:	6c3b      	ldr	r3, [r7, #64]	; 0x40
    2678:	441a      	add	r2, r3
    267a:	68fb      	ldr	r3, [r7, #12]
    267c:	639a      	str	r2, [r3, #56]	; 0x38
/home/wangzh/software/OP-TEE/optee_os/lib/libutee/tee_api_operations.c:901
    267e:	6d7a      	ldr	r2, [r7, #84]	; 0x54
    2680:	6c3b      	ldr	r3, [r7, #64]	; 0x40
    2682:	4413      	add	r3, r2
    2684:	657b      	str	r3, [r7, #84]	; 0x54
/home/wangzh/software/OP-TEE/optee_os/lib/libutee/tee_api_operations.c:902
    2686:	6d3a      	ldr	r2, [r7, #80]	; 0x50
    2688:	6c3b      	ldr	r3, [r7, #64]	; 0x40
    268a:	eba2 0303 	sub.w	r3, r2, r3
    268e:	653b      	str	r3, [r7, #80]	; 0x50
/home/wangzh/software/OP-TEE/optee_os/lib/libutee/tee_api_operations.c:903
    2690:	68fb      	ldr	r3, [r7, #12]
    2692:	6b9b      	ldr	r3, [r3, #56]	; 0x38
    2694:	68fa      	ldr	r2, [r7, #12]
    2696:	6b52      	ldr	r2, [r2, #52]	; 0x34
    2698:	fbb3 f1f2 	udiv	r1, r3, r2
    269c:	fb02 f201 	mul.w	r2, r2, r1
    26a0:	eba3 0302 	sub.w	r3, r3, r2
    26a4:	2b00      	cmp	r3, #0
    26a6:	f040 80f1 	bne.w	288c <tee_buffer_update+0x2ec>
/home/wangzh/software/OP-TEE/optee_os/lib/libutee/tee_api_operations.c:908
    26aa:	68fb      	ldr	r3, [r7, #12]
    26ac:	6b9b      	ldr	r3, [r3, #56]	; 0x38
    26ae:	2b00      	cmp	r3, #0
    26b0:	d07a      	beq.n	27a8 <tee_buffer_update+0x208>
/home/wangzh/software/OP-TEE/optee_os/lib/libutee/tee_api_operations.c:909 (discriminator 1)
    26b2:	68fb      	ldr	r3, [r7, #12]
    26b4:	6b9a      	ldr	r2, [r3, #56]	; 0x38
    26b6:	6d3b      	ldr	r3, [r7, #80]	; 0x50
    26b8:	441a      	add	r2, r3
    26ba:	6bf9      	ldr	r1, [r7, #60]	; 0x3c
    26bc:	6bbb      	ldr	r3, [r7, #56]	; 0x38
    26be:	440b      	add	r3, r1
/home/wangzh/software/OP-TEE/optee_os/lib/libutee/tee_api_operations.c:908 (discriminator 1)
    26c0:	429a      	cmp	r2, r3
    26c2:	d371      	bcc.n	27a8 <tee_buffer_update+0x208>
/home/wangzh/software/OP-TEE/optee_os/lib/libutee/tee_api_operations.c:910
    26c4:	68fb      	ldr	r3, [r7, #12]
    26c6:	6b9a      	ldr	r2, [r3, #56]	; 0x38
    26c8:	6d3b      	ldr	r3, [r7, #80]	; 0x50
    26ca:	441a      	add	r2, r3
    26cc:	6bfb      	ldr	r3, [r7, #60]	; 0x3c
    26ce:	eba2 0203 	sub.w	r2, r2, r3
    26d2:	68fb      	ldr	r3, [r7, #12]
    26d4:	6b5b      	ldr	r3, [r3, #52]	; 0x34
    26d6:	4413      	add	r3, r2
    26d8:	f103 32ff 	add.w	r2, r3, #4294967295	; 0xffffffff
    26dc:	68fb      	ldr	r3, [r7, #12]
    26de:	6b5b      	ldr	r3, [r3, #52]	; 0x34
    26e0:	f1c3 0300 	rsb	r3, r3, #0
    26e4:	ea03 0302 	and.w	r3, r3, r2
    26e8:	643b      	str	r3, [r7, #64]	; 0x40
/home/wangzh/software/OP-TEE/optee_os/lib/libutee/tee_api_operations.c:912
    26ea:	68fb      	ldr	r3, [r7, #12]
    26ec:	6b9b      	ldr	r3, [r3, #56]	; 0x38
    26ee:	627b      	str	r3, [r7, #36]	; 0x24
    26f0:	6c3b      	ldr	r3, [r7, #64]	; 0x40
    26f2:	623b      	str	r3, [r7, #32]
    26f4:	6a3a      	ldr	r2, [r7, #32]
    26f6:	6a7b      	ldr	r3, [r7, #36]	; 0x24
    26f8:	4293      	cmp	r3, r2
    26fa:	bf28      	it	cs
    26fc:	4613      	movcs	r3, r2
    26fe:	643b      	str	r3, [r7, #64]	; 0x40
/home/wangzh/software/OP-TEE/optee_os/lib/libutee/tee_api_operations.c:913
    2700:	6cbb      	ldr	r3, [r7, #72]	; 0x48
    2702:	f04f 0400 	mov.w	r4, #0
    2706:	e9c7 3404 	strd	r3, r4, [r7, #16]
/home/wangzh/software/OP-TEE/optee_os/lib/libutee/tee_api_operations.c:914
    270a:	68fb      	ldr	r3, [r7, #12]
    270c:	6bd8      	ldr	r0, [r3, #60]	; 0x3c
    270e:	68fb      	ldr	r3, [r7, #12]
    2710:	6ad9      	ldr	r1, [r3, #44]	; 0x2c
    2712:	f107 0310 	add.w	r3, r7, #16
    2716:	9300      	str	r3, [sp, #0]
    2718:	68bc      	ldr	r4, [r7, #8]
    271a:	6cfb      	ldr	r3, [r7, #76]	; 0x4c
    271c:	6c3a      	ldr	r2, [r7, #64]	; 0x40
    271e:	47a0      	blx	r4
    2720:	61f8      	str	r0, [r7, #28]
/home/wangzh/software/OP-TEE/optee_os/lib/libutee/tee_api_operations.c:915
    2722:	69fb      	ldr	r3, [r7, #28]
    2724:	2b00      	cmp	r3, #0
    2726:	d002      	beq.n	272e <tee_buffer_update+0x18e>
/home/wangzh/software/OP-TEE/optee_os/lib/libutee/tee_api_operations.c:916
    2728:	69f8      	ldr	r0, [r7, #28]
    272a:	f008 fba8 	bl	ae7e <TEE_Panic>
/home/wangzh/software/OP-TEE/optee_os/lib/libutee/tee_api_operations.c:917
    272e:	e9d7 3404 	ldrd	r3, r4, [r7, #16]
    2732:	461a      	mov	r2, r3
    2734:	6cfb      	ldr	r3, [r7, #76]	; 0x4c
    2736:	4413      	add	r3, r2
    2738:	64fb      	str	r3, [r7, #76]	; 0x4c
/home/wangzh/software/OP-TEE/optee_os/lib/libutee/tee_api_operations.c:918
    273a:	e9d7 3404 	ldrd	r3, r4, [r7, #16]
    273e:	461a      	mov	r2, r3
    2740:	6cbb      	ldr	r3, [r7, #72]	; 0x48
    2742:	eba3 0302 	sub.w	r3, r3, r2
    2746:	64bb      	str	r3, [r7, #72]	; 0x48
/home/wangzh/software/OP-TEE/optee_os/lib/libutee/tee_api_operations.c:919
    2748:	e9d7 3404 	ldrd	r3, r4, [r7, #16]
    274c:	461a      	mov	r2, r3
    274e:	6c7b      	ldr	r3, [r7, #68]	; 0x44
    2750:	4413      	add	r3, r2
    2752:	647b      	str	r3, [r7, #68]	; 0x44
/home/wangzh/software/OP-TEE/optee_os/lib/libutee/tee_api_operations.c:920
    2754:	68fb      	ldr	r3, [r7, #12]
    2756:	6b9a      	ldr	r2, [r3, #56]	; 0x38
    2758:	6c3b      	ldr	r3, [r7, #64]	; 0x40
    275a:	eba2 0203 	sub.w	r2, r2, r3
    275e:	68fb      	ldr	r3, [r7, #12]
    2760:	639a      	str	r2, [r3, #56]	; 0x38
/home/wangzh/software/OP-TEE/optee_os/lib/libutee/tee_api_operations.c:921
    2762:	68fb      	ldr	r3, [r7, #12]
    2764:	6b9b      	ldr	r3, [r3, #56]	; 0x38
    2766:	2b00      	cmp	r3, #0
    2768:	d01e      	beq.n	27a8 <tee_buffer_update+0x208>
/home/wangzh/software/OP-TEE/optee_os/lib/libutee/tee_api_operations.c:925
    276a:	68fb      	ldr	r3, [r7, #12]
    276c:	6ad8      	ldr	r0, [r3, #44]	; 0x2c
    276e:	68fb      	ldr	r3, [r7, #12]
    2770:	6ada      	ldr	r2, [r3, #44]	; 0x2c
    2772:	6c3b      	ldr	r3, [r7, #64]	; 0x40
    2774:	eb02 0103 	add.w	r1, r2, r3
    2778:	6bfa      	ldr	r2, [r7, #60]	; 0x3c
    277a:	6c3b      	ldr	r3, [r7, #64]	; 0x40
    277c:	eba2 0303 	sub.w	r3, r2, r3
    2780:	461a      	mov	r2, r3
    2782:	f009 fc9b 	bl	c0bc <memcpy>
/home/wangzh/software/OP-TEE/optee_os/lib/libutee/tee_api_operations.c:926
    2786:	68fb      	ldr	r3, [r7, #12]
    2788:	6ada      	ldr	r2, [r3, #44]	; 0x2c
    278a:	68fb      	ldr	r3, [r7, #12]
    278c:	6b9b      	ldr	r3, [r3, #56]	; 0x38
    278e:	4413      	add	r3, r2
    2790:	6d3a      	ldr	r2, [r7, #80]	; 0x50
    2792:	6d79      	ldr	r1, [r7, #84]	; 0x54
    2794:	4618      	mov	r0, r3
    2796:	f009 fc91 	bl	c0bc <memcpy>
/home/wangzh/software/OP-TEE/optee_os/lib/libutee/tee_api_operations.c:927
    279a:	68fb      	ldr	r3, [r7, #12]
    279c:	6b9a      	ldr	r2, [r3, #56]	; 0x38
    279e:	6d3b      	ldr	r3, [r7, #80]	; 0x50
    27a0:	441a      	add	r2, r3
    27a2:	68fb      	ldr	r3, [r7, #12]
    27a4:	639a      	str	r2, [r3, #56]	; 0x38
/home/wangzh/software/OP-TEE/optee_os/lib/libutee/tee_api_operations.c:928
    27a6:	e072      	b.n	288e <tee_buffer_update+0x2ee>
/home/wangzh/software/OP-TEE/optee_os/lib/libutee/tee_api_operations.c:932
    27a8:	6bfa      	ldr	r2, [r7, #60]	; 0x3c
    27aa:	6bbb      	ldr	r3, [r7, #56]	; 0x38
    27ac:	441a      	add	r2, r3
    27ae:	6d3b      	ldr	r3, [r7, #80]	; 0x50
    27b0:	429a      	cmp	r2, r3
    27b2:	d858      	bhi.n	2866 <tee_buffer_update+0x2c6>
/home/wangzh/software/OP-TEE/optee_os/lib/libutee/tee_api_operations.c:934
    27b4:	68fb      	ldr	r3, [r7, #12]
    27b6:	681a      	ldr	r2, [r3, #0]
    27b8:	f44f 7344 	mov.w	r3, #784	; 0x310
    27bc:	f2c1 0300 	movt	r3, #4096	; 0x1000
    27c0:	429a      	cmp	r2, r3
    27c2:	d110      	bne.n	27e6 <tee_buffer_update+0x246>
/home/wangzh/software/OP-TEE/optee_os/lib/libutee/tee_api_operations.c:935
    27c4:	6d3a      	ldr	r2, [r7, #80]	; 0x50
    27c6:	6bfb      	ldr	r3, [r7, #60]	; 0x3c
    27c8:	eba2 0203 	sub.w	r2, r2, r3
    27cc:	68fb      	ldr	r3, [r7, #12]
    27ce:	6b5b      	ldr	r3, [r3, #52]	; 0x34
    27d0:	4413      	add	r3, r2
    27d2:	f103 32ff 	add.w	r2, r3, #4294967295	; 0xffffffff
    27d6:	68fb      	ldr	r3, [r7, #12]
    27d8:	6b5b      	ldr	r3, [r3, #52]	; 0x34
    27da:	f1c3 0300 	rsb	r3, r3, #0
    27de:	ea03 0302 	and.w	r3, r3, r2
    27e2:	643b      	str	r3, [r7, #64]	; 0x40
    27e4:	e00d      	b.n	2802 <tee_buffer_update+0x262>
/home/wangzh/software/OP-TEE/optee_os/lib/libutee/tee_api_operations.c:937
    27e6:	6d3a      	ldr	r2, [r7, #80]	; 0x50
    27e8:	6bfb      	ldr	r3, [r7, #60]	; 0x3c
    27ea:	eba2 0203 	sub.w	r2, r2, r3
    27ee:	68fb      	ldr	r3, [r7, #12]
    27f0:	6b5b      	ldr	r3, [r3, #52]	; 0x34
    27f2:	441a      	add	r2, r3
    27f4:	68fb      	ldr	r3, [r7, #12]
    27f6:	6b5b      	ldr	r3, [r3, #52]	; 0x34
    27f8:	f1c3 0300 	rsb	r3, r3, #0
    27fc:	ea03 0302 	and.w	r3, r3, r2
    2800:	643b      	str	r3, [r7, #64]	; 0x40
/home/wangzh/software/OP-TEE/optee_os/lib/libutee/tee_api_operations.c:939
    2802:	6cbb      	ldr	r3, [r7, #72]	; 0x48
    2804:	f04f 0400 	mov.w	r4, #0
    2808:	e9c7 3404 	strd	r3, r4, [r7, #16]
/home/wangzh/software/OP-TEE/optee_os/lib/libutee/tee_api_operations.c:940
    280c:	68fb      	ldr	r3, [r7, #12]
    280e:	6bd8      	ldr	r0, [r3, #60]	; 0x3c
    2810:	f107 0310 	add.w	r3, r7, #16
    2814:	9300      	str	r3, [sp, #0]
    2816:	68bc      	ldr	r4, [r7, #8]
    2818:	6cfb      	ldr	r3, [r7, #76]	; 0x4c
    281a:	6c3a      	ldr	r2, [r7, #64]	; 0x40
    281c:	6d79      	ldr	r1, [r7, #84]	; 0x54
    281e:	47a0      	blx	r4
    2820:	61f8      	str	r0, [r7, #28]
/home/wangzh/software/OP-TEE/optee_os/lib/libutee/tee_api_operations.c:941
    2822:	69fb      	ldr	r3, [r7, #28]
    2824:	2b00      	cmp	r3, #0
    2826:	d002      	beq.n	282e <tee_buffer_update+0x28e>
/home/wangzh/software/OP-TEE/optee_os/lib/libutee/tee_api_operations.c:942
    2828:	69f8      	ldr	r0, [r7, #28]
    282a:	f008 fb28 	bl	ae7e <TEE_Panic>
/home/wangzh/software/OP-TEE/optee_os/lib/libutee/tee_api_operations.c:943
    282e:	6d7a      	ldr	r2, [r7, #84]	; 0x54
    2830:	6c3b      	ldr	r3, [r7, #64]	; 0x40
    2832:	4413      	add	r3, r2
    2834:	657b      	str	r3, [r7, #84]	; 0x54
/home/wangzh/software/OP-TEE/optee_os/lib/libutee/tee_api_operations.c:944
    2836:	6d3a      	ldr	r2, [r7, #80]	; 0x50
    2838:	6c3b      	ldr	r3, [r7, #64]	; 0x40
    283a:	eba2 0303 	sub.w	r3, r2, r3
    283e:	653b      	str	r3, [r7, #80]	; 0x50
/home/wangzh/software/OP-TEE/optee_os/lib/libutee/tee_api_operations.c:945
    2840:	e9d7 3404 	ldrd	r3, r4, [r7, #16]
    2844:	461a      	mov	r2, r3
    2846:	6cfb      	ldr	r3, [r7, #76]	; 0x4c
    2848:	4413      	add	r3, r2
    284a:	64fb      	str	r3, [r7, #76]	; 0x4c
/home/wangzh/software/OP-TEE/optee_os/lib/libutee/tee_api_operations.c:946
    284c:	e9d7 3404 	ldrd	r3, r4, [r7, #16]
    2850:	461a      	mov	r2, r3
    2852:	6cbb      	ldr	r3, [r7, #72]	; 0x48
    2854:	eba3 0302 	sub.w	r3, r3, r2
    2858:	64bb      	str	r3, [r7, #72]	; 0x48
/home/wangzh/software/OP-TEE/optee_os/lib/libutee/tee_api_operations.c:947
    285a:	e9d7 3404 	ldrd	r3, r4, [r7, #16]
    285e:	461a      	mov	r2, r3
    2860:	6c7b      	ldr	r3, [r7, #68]	; 0x44
    2862:	4413      	add	r3, r2
    2864:	647b      	str	r3, [r7, #68]	; 0x44
/home/wangzh/software/OP-TEE/optee_os/lib/libutee/tee_api_operations.c:951
    2866:	68fb      	ldr	r3, [r7, #12]
    2868:	6ada      	ldr	r2, [r3, #44]	; 0x2c
    286a:	68fb      	ldr	r3, [r7, #12]
    286c:	6b9b      	ldr	r3, [r3, #56]	; 0x38
    286e:	4413      	add	r3, r2
    2870:	6d3a      	ldr	r2, [r7, #80]	; 0x50
    2872:	6d79      	ldr	r1, [r7, #84]	; 0x54
    2874:	4618      	mov	r0, r3
    2876:	f009 fc21 	bl	c0bc <memcpy>
/home/wangzh/software/OP-TEE/optee_os/lib/libutee/tee_api_operations.c:952
    287a:	68fb      	ldr	r3, [r7, #12]
    287c:	6b9a      	ldr	r2, [r3, #56]	; 0x38
    287e:	6d3b      	ldr	r3, [r7, #80]	; 0x50
    2880:	441a      	add	r2, r3
    2882:	68fb      	ldr	r3, [r7, #12]
    2884:	639a      	str	r2, [r3, #56]	; 0x38
    2886:	e002      	b.n	288e <tee_buffer_update+0x2ee>
/home/wangzh/software/OP-TEE/optee_os/lib/libutee/tee_api_operations.c:882
    2888:	bf00      	nop
    288a:	e000      	b.n	288e <tee_buffer_update+0x2ee>
/home/wangzh/software/OP-TEE/optee_os/lib/libutee/tee_api_operations.c:904
    288c:	bf00      	nop
/home/wangzh/software/OP-TEE/optee_os/lib/libutee/tee_api_operations.c:955
    288e:	6c7b      	ldr	r3, [r7, #68]	; 0x44
    2890:	f04f 0400 	mov.w	r4, #0
    2894:	6efa      	ldr	r2, [r7, #108]	; 0x6c
    2896:	e9c2 3400 	strd	r3, r4, [r2]
/home/wangzh/software/OP-TEE/optee_os/lib/libutee/tee_api_operations.c:956
    289a:	f04f 0300 	mov.w	r3, #0
/home/wangzh/software/OP-TEE/optee_os/lib/libutee/tee_api_operations.c:957
    289e:	4618      	mov	r0, r3
    28a0:	f107 075c 	add.w	r7, r7, #92	; 0x5c
    28a4:	46bd      	mov	sp, r7
    28a6:	e9dd 4700 	ldrd	r4, r7, [sp]
    28aa:	b002      	add	sp, #8
    28ac:	f85d fb04 	ldr.w	pc, [sp], #4

000028b0 <TEE_CipherUpdate>:
TEE_CipherUpdate():
/home/wangzh/software/OP-TEE/optee_os/lib/libutee/tee_api_operations.c:961
    28b0:	f84d 4d0c 	str.w	r4, [sp, #-12]!
    28b4:	e9cd 7e01 	strd	r7, lr, [sp, #4]
    28b8:	b08b      	sub	sp, #44	; 0x2c
    28ba:	af02      	add	r7, sp, #8
    28bc:	60f8      	str	r0, [r7, #12]
    28be:	60b9      	str	r1, [r7, #8]
    28c0:	607a      	str	r2, [r7, #4]
    28c2:	603b      	str	r3, [r7, #0]
    28c4:	4867      	ldr	r0, [pc, #412]	; (2a64 <TEE_CipherUpdate+0x1b4>)
    28c6:	4478      	add	r0, pc
/home/wangzh/software/OP-TEE/optee_os/lib/libutee/tee_api_operations.c:966
    28c8:	68fb      	ldr	r3, [r7, #12]
    28ca:	2b00      	cmp	r3, #0
    28cc:	d00f      	beq.n	28ee <TEE_CipherUpdate+0x3e>
/home/wangzh/software/OP-TEE/optee_os/lib/libutee/tee_api_operations.c:966 (discriminator 1)
    28ce:	68bb      	ldr	r3, [r7, #8]
    28d0:	2b00      	cmp	r3, #0
    28d2:	d102      	bne.n	28da <TEE_CipherUpdate+0x2a>
/home/wangzh/software/OP-TEE/optee_os/lib/libutee/tee_api_operations.c:967
    28d4:	687b      	ldr	r3, [r7, #4]
    28d6:	2b00      	cmp	r3, #0
    28d8:	d109      	bne.n	28ee <TEE_CipherUpdate+0x3e>
/home/wangzh/software/OP-TEE/optee_os/lib/libutee/tee_api_operations.c:967 (discriminator 1)
    28da:	6b3b      	ldr	r3, [r7, #48]	; 0x30
    28dc:	2b00      	cmp	r3, #0
    28de:	d006      	beq.n	28ee <TEE_CipherUpdate+0x3e>
/home/wangzh/software/OP-TEE/optee_os/lib/libutee/tee_api_operations.c:968
    28e0:	683b      	ldr	r3, [r7, #0]
    28e2:	2b00      	cmp	r3, #0
    28e4:	d109      	bne.n	28fa <TEE_CipherUpdate+0x4a>
/home/wangzh/software/OP-TEE/optee_os/lib/libutee/tee_api_operations.c:969
    28e6:	6b3b      	ldr	r3, [r7, #48]	; 0x30
    28e8:	681b      	ldr	r3, [r3, #0]
    28ea:	2b00      	cmp	r3, #0
    28ec:	d005      	beq.n	28fa <TEE_CipherUpdate+0x4a>
/home/wangzh/software/OP-TEE/optee_os/lib/libutee/tee_api_operations.c:970
    28ee:	f04f 0306 	mov.w	r3, #6
    28f2:	f6cf 73ff 	movt	r3, #65535	; 0xffff
    28f6:	61fb      	str	r3, [r7, #28]
/home/wangzh/software/OP-TEE/optee_os/lib/libutee/tee_api_operations.c:971
    28f8:	e09c      	b.n	2a34 <TEE_CipherUpdate+0x184>
/home/wangzh/software/OP-TEE/optee_os/lib/libutee/tee_api_operations.c:974
    28fa:	68fb      	ldr	r3, [r7, #12]
    28fc:	685b      	ldr	r3, [r3, #4]
    28fe:	2b01      	cmp	r3, #1
    2900:	d005      	beq.n	290e <TEE_CipherUpdate+0x5e>
/home/wangzh/software/OP-TEE/optee_os/lib/libutee/tee_api_operations.c:975
    2902:	f04f 0306 	mov.w	r3, #6
    2906:	f6cf 73ff 	movt	r3, #65535	; 0xffff
    290a:	61fb      	str	r3, [r7, #28]
/home/wangzh/software/OP-TEE/optee_os/lib/libutee/tee_api_operations.c:976
    290c:	e092      	b.n	2a34 <TEE_CipherUpdate+0x184>
/home/wangzh/software/OP-TEE/optee_os/lib/libutee/tee_api_operations.c:979
    290e:	68fb      	ldr	r3, [r7, #12]
    2910:	69db      	ldr	r3, [r3, #28]
    2912:	f403 3300 	and.w	r3, r3, #131072	; 0x20000
    2916:	2b00      	cmp	r3, #0
    2918:	d105      	bne.n	2926 <TEE_CipherUpdate+0x76>
/home/wangzh/software/OP-TEE/optee_os/lib/libutee/tee_api_operations.c:980
    291a:	f04f 0306 	mov.w	r3, #6
    291e:	f6cf 73ff 	movt	r3, #65535	; 0xffff
    2922:	61fb      	str	r3, [r7, #28]
/home/wangzh/software/OP-TEE/optee_os/lib/libutee/tee_api_operations.c:981
    2924:	e086      	b.n	2a34 <TEE_CipherUpdate+0x184>
